                              1 ;--------------------------------------------------------
                              2 ; File Created by SDCC : free open source ANSI-C Compiler
                              3 ; Version 3.6.0 #9615 (MINGW32)
                              4 ;--------------------------------------------------------
                              5 	.module puzzmem
                              6 	.optsdcc -mz80
                              7 	
                              8 ;--------------------------------------------------------
                              9 ; Public variables in this module
                             10 ;--------------------------------------------------------
                             11 	.globl _main
                             12 	.globl _computeNbPiece
                             13 	.globl _newEmptyGrille
                             14 	.globl _makePreview
                             15 	.globl _fillGrilleEtSelect
                             16 	.globl _fillSelect
                             17 	.globl _fill1Grille
                             18 	.globl _fillPreview
                             19 	.globl _fillListePieces
                             20 	.globl _fillListe1Piece
                             21 	.globl _piece
                             22 	.globl _put_frame
                             23 	.globl _vsync
                             24 	.globl _get_key
                             25 	.globl _check_controller
                             26 	.globl _put_pixel_byte1
                             27 	.globl _put_pixel1
                             28 	.globl _mode
                             29 	.globl _locate
                             30 	.globl _set_palette
                             31 	.globl _printf
                             32 	.globl _select
                             33 	.globl _grille
                             34 	.globl _preview
                             35 	.globl _nbPieces
                             36 	.globl _private_nbPieces
                             37 	.globl _private_grille
                             38 	.globl _private_preview
                             39 	.globl _puzzmem_palette
                             40 ;--------------------------------------------------------
                             41 ; special function registers
                             42 ;--------------------------------------------------------
                             43 ;--------------------------------------------------------
                             44 ; ram data
                             45 ;--------------------------------------------------------
                             46 	.area _DATA
   0000                      47 _private_preview::
   0000                      48 	.ds 49
   0031                      49 _private_grille::
   0031                      50 	.ds 49
   0062                      51 _private_nbPieces::
   0062                      52 	.ds 18
   0074                      53 _nbPieces::
   0074                      54 	.ds 2
   0076                      55 _preview::
   0076                      56 	.ds 2
   0078                      57 _grille::
   0078                      58 	.ds 2
   007A                      59 _select::
   007A                      60 	.ds 1
                             61 ;--------------------------------------------------------
                             62 ; ram data
                             63 ;--------------------------------------------------------
                             64 	.area _INITIALIZED
                             65 ;--------------------------------------------------------
                             66 ; absolute external ram data
                             67 ;--------------------------------------------------------
                             68 	.area _DABS (ABS)
                             69 ;--------------------------------------------------------
                             70 ; global & static initialisations
                             71 ;--------------------------------------------------------
                             72 	.area _HOME
                             73 	.area _GSINIT
                             74 	.area _GSFINAL
                             75 	.area _GSINIT
                             76 ;--------------------------------------------------------
                             77 ; Home
                             78 ;--------------------------------------------------------
                             79 	.area _HOME
                             80 	.area _HOME
                             81 ;--------------------------------------------------------
                             82 ; code
                             83 ;--------------------------------------------------------
                             84 	.area _CODE
                             85 ;puzzmem.c:39: void piece(char offset_x,char offset_y,char noTile,char tailleTile,char noTile2) {
                             86 ;	---------------------------------
                             87 ; Function piece
                             88 ; ---------------------------------
   0000                      89 _piece::
   0000 DD E5         [15]   90 	push	ix
   0002 DD 21 00 00   [14]   91 	ld	ix,#0
   0006 DD 39         [15]   92 	add	ix,sp
   0008 21 F0 FF      [10]   93 	ld	hl,#-16
   000B 39            [11]   94 	add	hl,sp
   000C F9            [ 6]   95 	ld	sp,hl
                             96 ;puzzmem.c:42: char mod4=offset_x%4;
   000D DD 7E 04      [19]   97 	ld	a,4 (ix)
   0010 E6 03         [ 7]   98 	and	a, #0x03
   0012 DD 77 F0      [19]   99 	ld	-16 (ix),a
                            100 ;puzzmem.c:43: if (noTile2==AUCUNE_CASE) {
   0015 DD 7E 08      [19]  101 	ld	a,8 (ix)
   0018 D6 16         [ 7]  102 	sub	a, #0x16
   001A 20 03         [12]  103 	jr	NZ,00102$
                            104 ;puzzmem.c:44: vsync();
   001C CDr00r00      [17]  105 	call	_vsync
   001F                     106 00102$:
                            107 ;puzzmem.c:46: switch(noTile) {
   001F 3E 15         [ 7]  108 	ld	a,#0x15
   0021 DD 96 06      [19]  109 	sub	a, 6 (ix)
   0024 DAr84r14      [10]  110 	jp	C,00323$
   0027 DD 5E 06      [19]  111 	ld	e,6 (ix)
   002A 16 00         [ 7]  112 	ld	d,#0x00
   002C 21r33r00      [10]  113 	ld	hl,#01138$
   002F 19            [11]  114 	add	hl,de
   0030 19            [11]  115 	add	hl,de
   0031 19            [11]  116 	add	hl,de
   0032 E9            [ 4]  117 	jp	(hl)
   0033                     118 01138$:
   0033 C3r75r00      [10]  119 	jp	00103$
   0036 C3r18r01      [10]  120 	jp	00110$
   0039 C3rC0r01      [10]  121 	jp	00117$
   003C C3r4Dr02      [10]  122 	jp	00123$
   003F C3rD9r02      [10]  123 	jp	00129$
   0042 C3r77r03      [10]  124 	jp	00135$
   0045 C3r14r04      [10]  125 	jp	00141$
   0048 C3r85r04      [10]  126 	jp	00147$
   004B C3rF6r04      [10]  127 	jp	00153$
   004E C3r41r06      [10]  128 	jp	00167$
   0051 C3r8Cr07      [10]  129 	jp	00181$
   0054 C3r9Br08      [10]  130 	jp	00195$
   0057 C3rAAr09      [10]  131 	jp	00209$
   005A C3rB8r0A      [10]  132 	jp	00223$
   005D C3rDCr0B      [10]  133 	jp	00237$
   0060 C3rEBr0C      [10]  134 	jp	00251$
   0063 C3rF9r0D      [10]  135 	jp	00265$
   0066 C3r08r0F      [10]  136 	jp	00279$
   0069 C3r17r10      [10]  137 	jp	00293$
   006C C3rBEr10      [10]  138 	jp	00300$
   006F C3rE8r11      [10]  139 	jp	00307$
   0072 C3r5Er13      [10]  140 	jp	00316$
                            141 ;puzzmem.c:47: case 0 :
   0075                     142 00103$:
                            143 ;puzzmem.c:49: for (y=0;y<tailleTile;y++) {
   0075 DD 36 F1 00   [19]  144 	ld	-15 (ix),#0x00
   0079                     145 00330$:
   0079 DD 7E F1      [19]  146 	ld	a,-15 (ix)
   007C DD 96 07      [19]  147 	sub	a, 7 (ix)
   007F D2r84r14      [10]  148 	jp	NC,00323$
                            149 ;puzzmem.c:50: for (x=0;x<tailleTile;x++) {
   0082 1E 00         [ 7]  150 	ld	e,#0x00
   0084 DD 7E 05      [19]  151 	ld	a,5 (ix)
   0087 DD 86 F1      [19]  152 	add	a, -15 (ix)
   008A 57            [ 4]  153 	ld	d,a
   008B DD 72 FF      [19]  154 	ld	-1 (ix),d
   008E                     155 00327$:
   008E 7B            [ 4]  156 	ld	a,e
   008F DD 96 07      [19]  157 	sub	a, 7 (ix)
   0092 D2r12r01      [10]  158 	jp	NC,00331$
                            159 ;puzzmem.c:51: if (x<tailleTile-4 && x%4==(4-mod4)%4) {
   0095 DD 4E 07      [19]  160 	ld	c,7 (ix)
   0098 06 00         [ 7]  161 	ld	b,#0x00
   009A 79            [ 4]  162 	ld	a,c
   009B C6 FC         [ 7]  163 	add	a,#0xfc
   009D 4F            [ 4]  164 	ld	c,a
   009E 78            [ 4]  165 	ld	a,b
   009F CE FF         [ 7]  166 	adc	a,#0xff
   00A1 47            [ 4]  167 	ld	b,a
   00A2 6B            [ 4]  168 	ld	l,e
   00A3 26 00         [ 7]  169 	ld	h,#0x00
   00A5 7D            [ 4]  170 	ld	a,l
   00A6 91            [ 4]  171 	sub	a, c
   00A7 7C            [ 4]  172 	ld	a,h
   00A8 98            [ 4]  173 	sbc	a, b
   00A9 E2rAEr00      [10]  174 	jp	PO, 01139$
   00AC EE 80         [ 7]  175 	xor	a, #0x80
   00AE                     176 01139$:
   00AE F2rF9r00      [10]  177 	jp	P,00105$
   00B1 7B            [ 4]  178 	ld	a,e
   00B2 E6 03         [ 7]  179 	and	a, #0x03
   00B4 DD 77 FE      [19]  180 	ld	-2 (ix),a
   00B7 DD 4E F0      [19]  181 	ld	c,-16 (ix)
   00BA 06 00         [ 7]  182 	ld	b,#0x00
   00BC 3E 04         [ 7]  183 	ld	a,#0x04
   00BE 91            [ 4]  184 	sub	a, c
   00BF 4F            [ 4]  185 	ld	c,a
   00C0 3E 00         [ 7]  186 	ld	a,#0x00
   00C2 98            [ 4]  187 	sbc	a, b
   00C3 47            [ 4]  188 	ld	b,a
   00C4 D5            [11]  189 	push	de
   00C5 21 04 00      [10]  190 	ld	hl,#0x0004
   00C8 E5            [11]  191 	push	hl
   00C9 C5            [11]  192 	push	bc
   00CA CDr00r00      [17]  193 	call	__modsint
   00CD F1            [10]  194 	pop	af
   00CE F1            [10]  195 	pop	af
   00CF D1            [10]  196 	pop	de
   00D0 DD 7E FE      [19]  197 	ld	a, -2 (ix)
   00D3 06 00         [ 7]  198 	ld	b, #0x00
   00D5 95            [ 4]  199 	sub	a, l
   00D6 20 21         [12]  200 	jr	NZ,00105$
   00D8 78            [ 4]  201 	ld	a,b
   00D9 94            [ 4]  202 	sub	a, h
   00DA 20 1D         [12]  203 	jr	NZ,00105$
                            204 ;puzzmem.c:52: put_pixel_byte1(offset_x+x,offset_y+y,2);
   00DC DD 7E 04      [19]  205 	ld	a,4 (ix)
   00DF 83            [ 4]  206 	add	a, e
   00E0 4F            [ 4]  207 	ld	c,a
   00E1 D5            [11]  208 	push	de
   00E2 3E 02         [ 7]  209 	ld	a,#0x02
   00E4 F5            [11]  210 	push	af
   00E5 33            [ 6]  211 	inc	sp
   00E6 DD 7E FF      [19]  212 	ld	a,-1 (ix)
   00E9 F5            [11]  213 	push	af
   00EA 33            [ 6]  214 	inc	sp
   00EB 79            [ 4]  215 	ld	a,c
   00EC F5            [11]  216 	push	af
   00ED 33            [ 6]  217 	inc	sp
   00EE CDr00r00      [17]  218 	call	_put_pixel_byte1
   00F1 F1            [10]  219 	pop	af
   00F2 33            [ 6]  220 	inc	sp
   00F3 D1            [10]  221 	pop	de
                            222 ;puzzmem.c:53: x+=3; // x+=4;
   00F4 1C            [ 4]  223 	inc	e
   00F5 1C            [ 4]  224 	inc	e
   00F6 1C            [ 4]  225 	inc	e
   00F7 18 15         [12]  226 	jr	00328$
   00F9                     227 00105$:
                            228 ;puzzmem.c:55: put_pixel1(offset_x+x,offset_y+y,2);
   00F9 DD 7E 04      [19]  229 	ld	a,4 (ix)
   00FC 83            [ 4]  230 	add	a, e
   00FD 4F            [ 4]  231 	ld	c,a
   00FE D5            [11]  232 	push	de
   00FF 3E 02         [ 7]  233 	ld	a,#0x02
   0101 F5            [11]  234 	push	af
   0102 33            [ 6]  235 	inc	sp
   0103 D5            [11]  236 	push	de
   0104 33            [ 6]  237 	inc	sp
   0105 79            [ 4]  238 	ld	a,c
   0106 F5            [11]  239 	push	af
   0107 33            [ 6]  240 	inc	sp
   0108 CDr00r00      [17]  241 	call	_put_pixel1
   010B F1            [10]  242 	pop	af
   010C 33            [ 6]  243 	inc	sp
   010D D1            [10]  244 	pop	de
   010E                     245 00328$:
                            246 ;puzzmem.c:50: for (x=0;x<tailleTile;x++) {
   010E 1C            [ 4]  247 	inc	e
   010F C3r8Er00      [10]  248 	jp	00327$
   0112                     249 00331$:
                            250 ;puzzmem.c:49: for (y=0;y<tailleTile;y++) {
   0112 DD 34 F1      [23]  251 	inc	-15 (ix)
   0115 C3r79r00      [10]  252 	jp	00330$
                            253 ;puzzmem.c:60: case 1 :
   0118                     254 00110$:
                            255 ;puzzmem.c:62: for (y=0;y<tailleTile;y++) {
   0118 DD 36 F1 00   [19]  256 	ld	-15 (ix),#0x00
   011C                     257 00336$:
   011C DD 7E F1      [19]  258 	ld	a,-15 (ix)
   011F DD 96 07      [19]  259 	sub	a, 7 (ix)
   0122 D2r84r14      [10]  260 	jp	NC,00323$
                            261 ;puzzmem.c:63: for (x=0;x<tailleTile;x++) {
   0125 06 00         [ 7]  262 	ld	b,#0x00
   0127 DD 7E 05      [19]  263 	ld	a,5 (ix)
   012A DD 86 F1      [19]  264 	add	a, -15 (ix)
   012D 5F            [ 4]  265 	ld	e,a
   012E DD 73 FE      [19]  266 	ld	-2 (ix),e
   0131                     267 00333$:
   0131 78            [ 4]  268 	ld	a,b
   0132 DD 96 07      [19]  269 	sub	a, 7 (ix)
   0135 D2rBAr01      [10]  270 	jp	NC,00337$
                            271 ;puzzmem.c:64: if (x<tailleTile-4 && x%4==(4-mod4)%4) {
   0138 DD 4E 07      [19]  272 	ld	c,7 (ix)
   013B 16 00         [ 7]  273 	ld	d,#0x00
   013D 79            [ 4]  274 	ld	a,c
   013E C6 FC         [ 7]  275 	add	a,#0xfc
   0140 4F            [ 4]  276 	ld	c,a
   0141 7A            [ 4]  277 	ld	a,d
   0142 CE FF         [ 7]  278 	adc	a,#0xff
   0144 57            [ 4]  279 	ld	d,a
   0145 68            [ 4]  280 	ld	l,b
   0146 26 00         [ 7]  281 	ld	h,#0x00
   0148 7D            [ 4]  282 	ld	a,l
   0149 91            [ 4]  283 	sub	a, c
   014A 7C            [ 4]  284 	ld	a,h
   014B 9A            [ 4]  285 	sbc	a, d
   014C E2r51r01      [10]  286 	jp	PO, 01142$
   014F EE 80         [ 7]  287 	xor	a, #0x80
   0151                     288 01142$:
   0151 F2rA2r01      [10]  289 	jp	P,00112$
   0154 78            [ 4]  290 	ld	a,b
   0155 E6 03         [ 7]  291 	and	a, #0x03
   0157 DD 77 FF      [19]  292 	ld	-1 (ix),a
   015A DD 56 F0      [19]  293 	ld	d,-16 (ix)
   015D 0E 00         [ 7]  294 	ld	c,#0x00
   015F 3E 04         [ 7]  295 	ld	a,#0x04
   0161 92            [ 4]  296 	sub	a, d
   0162 57            [ 4]  297 	ld	d,a
   0163 3E 00         [ 7]  298 	ld	a,#0x00
   0165 99            [ 4]  299 	sbc	a, c
   0166 4F            [ 4]  300 	ld	c,a
   0167 C5            [11]  301 	push	bc
   0168 D5            [11]  302 	push	de
   0169 21 04 00      [10]  303 	ld	hl,#0x0004
   016C E5            [11]  304 	push	hl
   016D 6A            [ 4]  305 	ld	l, d
   016E 61            [ 4]  306 	ld	h, c
   016F E5            [11]  307 	push	hl
   0170 CDr00r00      [17]  308 	call	__modsint
   0173 F1            [10]  309 	pop	af
   0174 F1            [10]  310 	pop	af
   0175 D1            [10]  311 	pop	de
   0176 C1            [10]  312 	pop	bc
   0177 DD 7E FF      [19]  313 	ld	a, -1 (ix)
   017A 16 00         [ 7]  314 	ld	d, #0x00
   017C 95            [ 4]  315 	sub	a, l
   017D 20 23         [12]  316 	jr	NZ,00112$
   017F 7A            [ 4]  317 	ld	a,d
   0180 94            [ 4]  318 	sub	a, h
   0181 20 1F         [12]  319 	jr	NZ,00112$
                            320 ;puzzmem.c:65: put_pixel_byte1(offset_x+x,offset_y+y,3);
   0183 DD 7E 04      [19]  321 	ld	a,4 (ix)
   0186 80            [ 4]  322 	add	a, b
   0187 4F            [ 4]  323 	ld	c,a
   0188 C5            [11]  324 	push	bc
   0189 D5            [11]  325 	push	de
   018A 3E 03         [ 7]  326 	ld	a,#0x03
   018C F5            [11]  327 	push	af
   018D 33            [ 6]  328 	inc	sp
   018E DD 7E FE      [19]  329 	ld	a,-2 (ix)
   0191 F5            [11]  330 	push	af
   0192 33            [ 6]  331 	inc	sp
   0193 79            [ 4]  332 	ld	a,c
   0194 F5            [11]  333 	push	af
   0195 33            [ 6]  334 	inc	sp
   0196 CDr00r00      [17]  335 	call	_put_pixel_byte1
   0199 F1            [10]  336 	pop	af
   019A 33            [ 6]  337 	inc	sp
   019B D1            [10]  338 	pop	de
   019C C1            [10]  339 	pop	bc
                            340 ;puzzmem.c:66: x+=3; // x+=4;
   019D 04            [ 4]  341 	inc	b
   019E 04            [ 4]  342 	inc	b
   019F 04            [ 4]  343 	inc	b
   01A0 18 14         [12]  344 	jr	00334$
   01A2                     345 00112$:
                            346 ;puzzmem.c:68: put_pixel1(offset_x+x,offset_y+y,3);
   01A2 DD 7E 04      [19]  347 	ld	a,4 (ix)
   01A5 80            [ 4]  348 	add	a, b
   01A6 4F            [ 4]  349 	ld	c,a
   01A7 C5            [11]  350 	push	bc
   01A8 D5            [11]  351 	push	de
   01A9 16 03         [ 7]  352 	ld	d,#0x03
   01AB D5            [11]  353 	push	de
   01AC 79            [ 4]  354 	ld	a,c
   01AD F5            [11]  355 	push	af
   01AE 33            [ 6]  356 	inc	sp
   01AF CDr00r00      [17]  357 	call	_put_pixel1
   01B2 F1            [10]  358 	pop	af
   01B3 33            [ 6]  359 	inc	sp
   01B4 D1            [10]  360 	pop	de
   01B5 C1            [10]  361 	pop	bc
   01B6                     362 00334$:
                            363 ;puzzmem.c:63: for (x=0;x<tailleTile;x++) {
   01B6 04            [ 4]  364 	inc	b
   01B7 C3r31r01      [10]  365 	jp	00333$
   01BA                     366 00337$:
                            367 ;puzzmem.c:62: for (y=0;y<tailleTile;y++) {
   01BA DD 34 F1      [23]  368 	inc	-15 (ix)
   01BD C3r1Cr01      [10]  369 	jp	00336$
                            370 ;puzzmem.c:73: case 2 :
   01C0                     371 00117$:
                            372 ;puzzmem.c:75: for (x=0;x<tailleTile;x++) {
   01C0 DD 36 F2 00   [19]  373 	ld	-14 (ix),#0x00
   01C4                     374 00342$:
   01C4 DD 7E F2      [19]  375 	ld	a,-14 (ix)
   01C7 DD 96 07      [19]  376 	sub	a, 7 (ix)
   01CA D2r84r14      [10]  377 	jp	NC,00323$
                            378 ;puzzmem.c:76: for (y=0;y<tailleTile;y++) {
   01CD DD 7E 04      [19]  379 	ld	a,4 (ix)
   01D0 DD 86 F2      [19]  380 	add	a, -14 (ix)
   01D3 47            [ 4]  381 	ld	b,a
   01D4 DD 70 FE      [19]  382 	ld	-2 (ix),b
   01D7 DD 36 F1 00   [19]  383 	ld	-15 (ix),#0x00
   01DB                     384 00339$:
   01DB DD 7E F1      [19]  385 	ld	a,-15 (ix)
   01DE DD 96 07      [19]  386 	sub	a, 7 (ix)
   01E1 30 64         [12]  387 	jr	NC,00343$
                            388 ;puzzmem.c:77: if (x+y<tailleTile-1) {
   01E3 DD 6E F2      [19]  389 	ld	l,-14 (ix)
   01E6 26 00         [ 7]  390 	ld	h,#0x00
   01E8 DD 4E F1      [19]  391 	ld	c,-15 (ix)
   01EB 16 00         [ 7]  392 	ld	d,#0x00
   01ED 7D            [ 4]  393 	ld	a,l
   01EE 81            [ 4]  394 	add	a, c
   01EF DD 77 FC      [19]  395 	ld	-4 (ix),a
   01F2 7C            [ 4]  396 	ld	a,h
   01F3 8A            [ 4]  397 	adc	a, d
   01F4 DD 77 FD      [19]  398 	ld	-3 (ix),a
   01F7 DD 6E 07      [19]  399 	ld	l, 7 (ix)
   01FA 26 00         [ 7]  400 	ld	h, #0x00
   01FC 2B            [ 6]  401 	dec	hl
   01FD 5D            [ 4]  402 	ld	e,l
   01FE 4C            [ 4]  403 	ld	c,h
   01FF DD 7E FC      [19]  404 	ld	a,-4 (ix)
   0202 93            [ 4]  405 	sub	a, e
   0203 DD 7E FD      [19]  406 	ld	a,-3 (ix)
   0206 99            [ 4]  407 	sbc	a, c
   0207 E2r0Cr02      [10]  408 	jp	PO, 01145$
   020A EE 80         [ 7]  409 	xor	a, #0x80
   020C                     410 01145$:
   020C F2r2Br02      [10]  411 	jp	P,00119$
                            412 ;puzzmem.c:78: put_pixel1(offset_x+x,offset_y+y,2);
   020F DD 7E 05      [19]  413 	ld	a,5 (ix)
   0212 DD 86 F1      [19]  414 	add	a, -15 (ix)
   0215 4F            [ 4]  415 	ld	c,a
   0216 C5            [11]  416 	push	bc
   0217 3E 02         [ 7]  417 	ld	a,#0x02
   0219 F5            [11]  418 	push	af
   021A 33            [ 6]  419 	inc	sp
   021B 79            [ 4]  420 	ld	a,c
   021C F5            [11]  421 	push	af
   021D 33            [ 6]  422 	inc	sp
   021E DD 7E FE      [19]  423 	ld	a,-2 (ix)
   0221 F5            [11]  424 	push	af
   0222 33            [ 6]  425 	inc	sp
   0223 CDr00r00      [17]  426 	call	_put_pixel1
   0226 F1            [10]  427 	pop	af
   0227 33            [ 6]  428 	inc	sp
   0228 C1            [10]  429 	pop	bc
   0229 18 17         [12]  430 	jr	00340$
   022B                     431 00119$:
                            432 ;puzzmem.c:80: put_pixel1(offset_x+x,offset_y+y,3);
   022B DD 7E 05      [19]  433 	ld	a,5 (ix)
   022E DD 86 F1      [19]  434 	add	a, -15 (ix)
   0231 4F            [ 4]  435 	ld	c,a
   0232 C5            [11]  436 	push	bc
   0233 3E 03         [ 7]  437 	ld	a,#0x03
   0235 F5            [11]  438 	push	af
   0236 33            [ 6]  439 	inc	sp
   0237 79            [ 4]  440 	ld	a,c
   0238 F5            [11]  441 	push	af
   0239 33            [ 6]  442 	inc	sp
   023A C5            [11]  443 	push	bc
   023B 33            [ 6]  444 	inc	sp
   023C CDr00r00      [17]  445 	call	_put_pixel1
   023F F1            [10]  446 	pop	af
   0240 33            [ 6]  447 	inc	sp
   0241 C1            [10]  448 	pop	bc
   0242                     449 00340$:
                            450 ;puzzmem.c:76: for (y=0;y<tailleTile;y++) {
   0242 DD 34 F1      [23]  451 	inc	-15 (ix)
   0245 18 94         [12]  452 	jr	00339$
   0247                     453 00343$:
                            454 ;puzzmem.c:75: for (x=0;x<tailleTile;x++) {
   0247 DD 34 F2      [23]  455 	inc	-14 (ix)
   024A C3rC4r01      [10]  456 	jp	00342$
                            457 ;puzzmem.c:85: case 3 :
   024D                     458 00123$:
                            459 ;puzzmem.c:87: for (x=0;x<tailleTile;x++) {
   024D DD 36 F2 00   [19]  460 	ld	-14 (ix),#0x00
   0251                     461 00348$:
   0251 DD 7E F2      [19]  462 	ld	a,-14 (ix)
   0254 DD 96 07      [19]  463 	sub	a, 7 (ix)
   0257 D2r84r14      [10]  464 	jp	NC,00323$
                            465 ;puzzmem.c:88: for (y=0;y<tailleTile;y++) {
   025A DD 7E 04      [19]  466 	ld	a,4 (ix)
   025D DD 86 F2      [19]  467 	add	a, -14 (ix)
   0260 47            [ 4]  468 	ld	b,a
   0261 DD 70 FC      [19]  469 	ld	-4 (ix),b
   0264 DD 36 F1 00   [19]  470 	ld	-15 (ix),#0x00
   0268                     471 00345$:
   0268 DD 7E F1      [19]  472 	ld	a,-15 (ix)
   026B DD 96 07      [19]  473 	sub	a, 7 (ix)
   026E 30 63         [12]  474 	jr	NC,00349$
                            475 ;puzzmem.c:89: if (x+y>tailleTile-1) {
   0270 DD 6E F2      [19]  476 	ld	l,-14 (ix)
   0273 26 00         [ 7]  477 	ld	h,#0x00
   0275 DD 4E F1      [19]  478 	ld	c,-15 (ix)
   0278 16 00         [ 7]  479 	ld	d,#0x00
   027A 7D            [ 4]  480 	ld	a,l
   027B 81            [ 4]  481 	add	a, c
   027C DD 77 FA      [19]  482 	ld	-6 (ix),a
   027F 7C            [ 4]  483 	ld	a,h
   0280 8A            [ 4]  484 	adc	a, d
   0281 DD 77 FB      [19]  485 	ld	-5 (ix),a
   0284 DD 6E 07      [19]  486 	ld	l, 7 (ix)
   0287 26 00         [ 7]  487 	ld	h, #0x00
   0289 2B            [ 6]  488 	dec	hl
   028A 7D            [ 4]  489 	ld	a, l
   028B 4C            [ 4]  490 	ld	c, h
   028C DD 96 FA      [19]  491 	sub	a, -6 (ix)
   028F 79            [ 4]  492 	ld	a,c
   0290 DD 9E FB      [19]  493 	sbc	a, -5 (ix)
   0293 E2r98r02      [10]  494 	jp	PO, 01146$
   0296 EE 80         [ 7]  495 	xor	a, #0x80
   0298                     496 01146$:
   0298 F2rB7r02      [10]  497 	jp	P,00125$
                            498 ;puzzmem.c:90: put_pixel1(offset_x+x,offset_y+y,2);
   029B DD 7E 05      [19]  499 	ld	a,5 (ix)
   029E DD 86 F1      [19]  500 	add	a, -15 (ix)
   02A1 4F            [ 4]  501 	ld	c,a
   02A2 C5            [11]  502 	push	bc
   02A3 3E 02         [ 7]  503 	ld	a,#0x02
   02A5 F5            [11]  504 	push	af
   02A6 33            [ 6]  505 	inc	sp
   02A7 79            [ 4]  506 	ld	a,c
   02A8 F5            [11]  507 	push	af
   02A9 33            [ 6]  508 	inc	sp
   02AA DD 7E FC      [19]  509 	ld	a,-4 (ix)
   02AD F5            [11]  510 	push	af
   02AE 33            [ 6]  511 	inc	sp
   02AF CDr00r00      [17]  512 	call	_put_pixel1
   02B2 F1            [10]  513 	pop	af
   02B3 33            [ 6]  514 	inc	sp
   02B4 C1            [10]  515 	pop	bc
   02B5 18 17         [12]  516 	jr	00346$
   02B7                     517 00125$:
                            518 ;puzzmem.c:92: put_pixel1(offset_x+x,offset_y+y,3);
   02B7 DD 7E 05      [19]  519 	ld	a,5 (ix)
   02BA DD 86 F1      [19]  520 	add	a, -15 (ix)
   02BD 4F            [ 4]  521 	ld	c,a
   02BE C5            [11]  522 	push	bc
   02BF 3E 03         [ 7]  523 	ld	a,#0x03
   02C1 F5            [11]  524 	push	af
   02C2 33            [ 6]  525 	inc	sp
   02C3 79            [ 4]  526 	ld	a,c
   02C4 F5            [11]  527 	push	af
   02C5 33            [ 6]  528 	inc	sp
   02C6 C5            [11]  529 	push	bc
   02C7 33            [ 6]  530 	inc	sp
   02C8 CDr00r00      [17]  531 	call	_put_pixel1
   02CB F1            [10]  532 	pop	af
   02CC 33            [ 6]  533 	inc	sp
   02CD C1            [10]  534 	pop	bc
   02CE                     535 00346$:
                            536 ;puzzmem.c:88: for (y=0;y<tailleTile;y++) {
   02CE DD 34 F1      [23]  537 	inc	-15 (ix)
   02D1 18 95         [12]  538 	jr	00345$
   02D3                     539 00349$:
                            540 ;puzzmem.c:87: for (x=0;x<tailleTile;x++) {
   02D3 DD 34 F2      [23]  541 	inc	-14 (ix)
   02D6 C3r51r02      [10]  542 	jp	00348$
                            543 ;puzzmem.c:97: case 4 :
   02D9                     544 00129$:
                            545 ;puzzmem.c:99: for (x=0;x<tailleTile;x++) {
   02D9 DD 36 F2 00   [19]  546 	ld	-14 (ix),#0x00
   02DD                     547 00354$:
   02DD DD 7E F2      [19]  548 	ld	a,-14 (ix)
   02E0 DD 96 07      [19]  549 	sub	a, 7 (ix)
   02E3 D2r84r14      [10]  550 	jp	NC,00323$
                            551 ;puzzmem.c:100: for (y=0;y<tailleTile;y++) {
   02E6 DD 7E 04      [19]  552 	ld	a,4 (ix)
   02E9 DD 86 F2      [19]  553 	add	a, -14 (ix)
   02EC DD 77 FC      [19]  554 	ld	-4 (ix), a
   02EF DD 77 FA      [19]  555 	ld	-6 (ix),a
   02F2 DD 36 F1 00   [19]  556 	ld	-15 (ix),#0x00
   02F6                     557 00351$:
   02F6 DD 7E F1      [19]  558 	ld	a,-15 (ix)
   02F9 DD 96 07      [19]  559 	sub	a, 7 (ix)
   02FC 30 73         [12]  560 	jr	NC,00355$
                            561 ;puzzmem.c:101: if (x+tailleTile-1-y<tailleTile-1) {
   02FE DD 6E F2      [19]  562 	ld	l,-14 (ix)
   0301 26 00         [ 7]  563 	ld	h,#0x00
   0303 DD 4E 07      [19]  564 	ld	c,7 (ix)
   0306 16 00         [ 7]  565 	ld	d,#0x00
   0308 7D            [ 4]  566 	ld	a,l
   0309 81            [ 4]  567 	add	a, c
   030A 5F            [ 4]  568 	ld	e,a
   030B 7C            [ 4]  569 	ld	a,h
   030C 8A            [ 4]  570 	adc	a, d
   030D 47            [ 4]  571 	ld	b,a
   030E 7B            [ 4]  572 	ld	a,e
   030F C6 FF         [ 7]  573 	add	a,#0xff
   0311 DD 77 F8      [19]  574 	ld	-8 (ix),a
   0314 78            [ 4]  575 	ld	a,b
   0315 CE FF         [ 7]  576 	adc	a,#0xff
   0317 DD 77 F9      [19]  577 	ld	-7 (ix),a
   031A DD 46 F1      [19]  578 	ld	b,-15 (ix)
   031D 1E 00         [ 7]  579 	ld	e,#0x00
   031F DD 7E F8      [19]  580 	ld	a,-8 (ix)
   0322 90            [ 4]  581 	sub	a, b
   0323 47            [ 4]  582 	ld	b,a
   0324 DD 7E F9      [19]  583 	ld	a,-7 (ix)
   0327 9B            [ 4]  584 	sbc	a, e
   0328 5F            [ 4]  585 	ld	e,a
   0329 69            [ 4]  586 	ld	l, c
   032A 62            [ 4]  587 	ld	h, d
   032B 2B            [ 6]  588 	dec	hl
   032C 4D            [ 4]  589 	ld	c,l
   032D 54            [ 4]  590 	ld	d,h
   032E 78            [ 4]  591 	ld	a,b
   032F 91            [ 4]  592 	sub	a, c
   0330 7B            [ 4]  593 	ld	a,e
   0331 9A            [ 4]  594 	sbc	a, d
   0332 E2r37r03      [10]  595 	jp	PO, 01147$
   0335 EE 80         [ 7]  596 	xor	a, #0x80
   0337                     597 01147$:
   0337 F2r54r03      [10]  598 	jp	P,00131$
                            599 ;puzzmem.c:102: put_pixel1(offset_x+x,offset_y+y,2);
   033A DD 7E 05      [19]  600 	ld	a,5 (ix)
   033D DD 86 F1      [19]  601 	add	a, -15 (ix)
   0340 4F            [ 4]  602 	ld	c,a
   0341 3E 02         [ 7]  603 	ld	a,#0x02
   0343 F5            [11]  604 	push	af
   0344 33            [ 6]  605 	inc	sp
   0345 79            [ 4]  606 	ld	a,c
   0346 F5            [11]  607 	push	af
   0347 33            [ 6]  608 	inc	sp
   0348 DD 7E FA      [19]  609 	ld	a,-6 (ix)
   034B F5            [11]  610 	push	af
   034C 33            [ 6]  611 	inc	sp
   034D CDr00r00      [17]  612 	call	_put_pixel1
   0350 F1            [10]  613 	pop	af
   0351 33            [ 6]  614 	inc	sp
   0352 18 18         [12]  615 	jr	00352$
   0354                     616 00131$:
                            617 ;puzzmem.c:104: put_pixel1(offset_x+x,offset_y+y,3);
   0354 DD 7E 05      [19]  618 	ld	a,5 (ix)
   0357 DD 86 F1      [19]  619 	add	a, -15 (ix)
   035A 4F            [ 4]  620 	ld	c,a
   035B 3E 03         [ 7]  621 	ld	a,#0x03
   035D F5            [11]  622 	push	af
   035E 33            [ 6]  623 	inc	sp
   035F 79            [ 4]  624 	ld	a,c
   0360 F5            [11]  625 	push	af
   0361 33            [ 6]  626 	inc	sp
   0362 DD 7E FC      [19]  627 	ld	a,-4 (ix)
   0365 F5            [11]  628 	push	af
   0366 33            [ 6]  629 	inc	sp
   0367 CDr00r00      [17]  630 	call	_put_pixel1
   036A F1            [10]  631 	pop	af
   036B 33            [ 6]  632 	inc	sp
   036C                     633 00352$:
                            634 ;puzzmem.c:100: for (y=0;y<tailleTile;y++) {
   036C DD 34 F1      [23]  635 	inc	-15 (ix)
   036F 18 85         [12]  636 	jr	00351$
   0371                     637 00355$:
                            638 ;puzzmem.c:99: for (x=0;x<tailleTile;x++) {
   0371 DD 34 F2      [23]  639 	inc	-14 (ix)
   0374 C3rDDr02      [10]  640 	jp	00354$
                            641 ;puzzmem.c:109: case 5 :
   0377                     642 00135$:
                            643 ;puzzmem.c:111: for (x=0;x<tailleTile;x++) {
   0377 DD 36 F2 00   [19]  644 	ld	-14 (ix),#0x00
   037B                     645 00360$:
   037B DD 7E F2      [19]  646 	ld	a,-14 (ix)
   037E DD 96 07      [19]  647 	sub	a, 7 (ix)
   0381 D2r84r14      [10]  648 	jp	NC,00323$
                            649 ;puzzmem.c:112: for (y=0;y<tailleTile;y++) {
   0384 DD 7E 04      [19]  650 	ld	a,4 (ix)
   0387 DD 86 F2      [19]  651 	add	a, -14 (ix)
   038A DD 77 FA      [19]  652 	ld	-6 (ix), a
   038D DD 77 F8      [19]  653 	ld	-8 (ix),a
   0390 DD 36 F1 00   [19]  654 	ld	-15 (ix),#0x00
   0394                     655 00357$:
   0394 DD 7E F1      [19]  656 	ld	a,-15 (ix)
   0397 DD 96 07      [19]  657 	sub	a, 7 (ix)
   039A 30 72         [12]  658 	jr	NC,00361$
                            659 ;puzzmem.c:113: if (x+tailleTile-1-y>tailleTile-1) {
   039C DD 6E F2      [19]  660 	ld	l,-14 (ix)
   039F 26 00         [ 7]  661 	ld	h,#0x00
   03A1 DD 4E 07      [19]  662 	ld	c,7 (ix)
   03A4 16 00         [ 7]  663 	ld	d,#0x00
   03A6 7D            [ 4]  664 	ld	a,l
   03A7 81            [ 4]  665 	add	a, c
   03A8 5F            [ 4]  666 	ld	e,a
   03A9 7C            [ 4]  667 	ld	a,h
   03AA 8A            [ 4]  668 	adc	a, d
   03AB 47            [ 4]  669 	ld	b,a
   03AC 7B            [ 4]  670 	ld	a,e
   03AD C6 FF         [ 7]  671 	add	a,#0xff
   03AF DD 77 FC      [19]  672 	ld	-4 (ix),a
   03B2 78            [ 4]  673 	ld	a,b
   03B3 CE FF         [ 7]  674 	adc	a,#0xff
   03B5 DD 77 FD      [19]  675 	ld	-3 (ix),a
   03B8 DD 46 F1      [19]  676 	ld	b,-15 (ix)
   03BB 1E 00         [ 7]  677 	ld	e,#0x00
   03BD DD 7E FC      [19]  678 	ld	a,-4 (ix)
   03C0 90            [ 4]  679 	sub	a, b
   03C1 47            [ 4]  680 	ld	b,a
   03C2 DD 7E FD      [19]  681 	ld	a,-3 (ix)
   03C5 9B            [ 4]  682 	sbc	a, e
   03C6 5F            [ 4]  683 	ld	e,a
   03C7 69            [ 4]  684 	ld	l, c
   03C8 62            [ 4]  685 	ld	h, d
   03C9 2B            [ 6]  686 	dec	hl
   03CA 7D            [ 4]  687 	ld	a, l
   03CB 54            [ 4]  688 	ld	d, h
   03CC 90            [ 4]  689 	sub	a, b
   03CD 7A            [ 4]  690 	ld	a,d
   03CE 9B            [ 4]  691 	sbc	a, e
   03CF E2rD4r03      [10]  692 	jp	PO, 01148$
   03D2 EE 80         [ 7]  693 	xor	a, #0x80
   03D4                     694 01148$:
   03D4 F2rF1r03      [10]  695 	jp	P,00137$
                            696 ;puzzmem.c:114: put_pixel1(offset_x+x,offset_y+y,2);
   03D7 DD 7E 05      [19]  697 	ld	a,5 (ix)
   03DA DD 86 F1      [19]  698 	add	a, -15 (ix)
   03DD 4F            [ 4]  699 	ld	c,a
   03DE 3E 02         [ 7]  700 	ld	a,#0x02
   03E0 F5            [11]  701 	push	af
   03E1 33            [ 6]  702 	inc	sp
   03E2 79            [ 4]  703 	ld	a,c
   03E3 F5            [11]  704 	push	af
   03E4 33            [ 6]  705 	inc	sp
   03E5 DD 7E F8      [19]  706 	ld	a,-8 (ix)
   03E8 F5            [11]  707 	push	af
   03E9 33            [ 6]  708 	inc	sp
   03EA CDr00r00      [17]  709 	call	_put_pixel1
   03ED F1            [10]  710 	pop	af
   03EE 33            [ 6]  711 	inc	sp
   03EF 18 18         [12]  712 	jr	00358$
   03F1                     713 00137$:
                            714 ;puzzmem.c:116: put_pixel1(offset_x+x,offset_y+y,3);
   03F1 DD 7E 05      [19]  715 	ld	a,5 (ix)
   03F4 DD 86 F1      [19]  716 	add	a, -15 (ix)
   03F7 4F            [ 4]  717 	ld	c,a
   03F8 3E 03         [ 7]  718 	ld	a,#0x03
   03FA F5            [11]  719 	push	af
   03FB 33            [ 6]  720 	inc	sp
   03FC 79            [ 4]  721 	ld	a,c
   03FD F5            [11]  722 	push	af
   03FE 33            [ 6]  723 	inc	sp
   03FF DD 7E FA      [19]  724 	ld	a,-6 (ix)
   0402 F5            [11]  725 	push	af
   0403 33            [ 6]  726 	inc	sp
   0404 CDr00r00      [17]  727 	call	_put_pixel1
   0407 F1            [10]  728 	pop	af
   0408 33            [ 6]  729 	inc	sp
   0409                     730 00358$:
                            731 ;puzzmem.c:112: for (y=0;y<tailleTile;y++) {
   0409 DD 34 F1      [23]  732 	inc	-15 (ix)
   040C 18 86         [12]  733 	jr	00357$
   040E                     734 00361$:
                            735 ;puzzmem.c:111: for (x=0;x<tailleTile;x++) {
   040E DD 34 F2      [23]  736 	inc	-14 (ix)
   0411 C3r7Br03      [10]  737 	jp	00360$
                            738 ;puzzmem.c:121: case 6 :
   0414                     739 00141$:
                            740 ;puzzmem.c:123: for (x=0;x<tailleTile;x++) {
   0414 DD 4E 07      [19]  741 	ld	c,7 (ix)
   0417 CB 39         [ 8]  742 	srl	c
   0419 DD 36 F2 00   [19]  743 	ld	-14 (ix),#0x00
   041D                     744 00366$:
   041D DD 7E F2      [19]  745 	ld	a,-14 (ix)
   0420 DD 96 07      [19]  746 	sub	a, 7 (ix)
   0423 D2r84r14      [10]  747 	jp	NC,00323$
                            748 ;puzzmem.c:124: for (y=0;y<tailleTile;y++) {
   0426 DD 7E F2      [19]  749 	ld	a,-14 (ix)
   0429 91            [ 4]  750 	sub	a, c
   042A 3E 00         [ 7]  751 	ld	a,#0x00
   042C 17            [ 4]  752 	rla
   042D 5F            [ 4]  753 	ld	e,a
   042E DD 7E 04      [19]  754 	ld	a,4 (ix)
   0431 DD 86 F2      [19]  755 	add	a, -14 (ix)
   0434 57            [ 4]  756 	ld	d,a
   0435 DD 72 F8      [19]  757 	ld	-8 (ix),d
   0438 DD 36 F1 00   [19]  758 	ld	-15 (ix),#0x00
   043C                     759 00363$:
   043C DD 7E F1      [19]  760 	ld	a,-15 (ix)
   043F DD 96 07      [19]  761 	sub	a, 7 (ix)
   0442 30 3C         [12]  762 	jr	NC,00367$
                            763 ;puzzmem.c:125: if (x<tailleTile/2) {
   0444 7B            [ 4]  764 	ld	a,e
   0445 B7            [ 4]  765 	or	a, a
   0446 28 1D         [12]  766 	jr	Z,00143$
                            767 ;puzzmem.c:126: put_pixel1(offset_x+x,offset_y+y,2);
   0448 DD 7E 05      [19]  768 	ld	a,5 (ix)
   044B DD 86 F1      [19]  769 	add	a, -15 (ix)
   044E 47            [ 4]  770 	ld	b,a
   044F C5            [11]  771 	push	bc
   0450 D5            [11]  772 	push	de
   0451 3E 02         [ 7]  773 	ld	a,#0x02
   0453 F5            [11]  774 	push	af
   0454 33            [ 6]  775 	inc	sp
   0455 C5            [11]  776 	push	bc
   0456 33            [ 6]  777 	inc	sp
   0457 DD 7E F8      [19]  778 	ld	a,-8 (ix)
   045A F5            [11]  779 	push	af
   045B 33            [ 6]  780 	inc	sp
   045C CDr00r00      [17]  781 	call	_put_pixel1
   045F F1            [10]  782 	pop	af
   0460 33            [ 6]  783 	inc	sp
   0461 D1            [10]  784 	pop	de
   0462 C1            [10]  785 	pop	bc
   0463 18 16         [12]  786 	jr	00364$
   0465                     787 00143$:
                            788 ;puzzmem.c:128: put_pixel1(offset_x+x,offset_y+y,3);
   0465 DD 7E 05      [19]  789 	ld	a,5 (ix)
   0468 DD 86 F1      [19]  790 	add	a, -15 (ix)
   046B 47            [ 4]  791 	ld	b,a
   046C C5            [11]  792 	push	bc
   046D D5            [11]  793 	push	de
   046E 3E 03         [ 7]  794 	ld	a,#0x03
   0470 F5            [11]  795 	push	af
   0471 33            [ 6]  796 	inc	sp
   0472 4A            [ 4]  797 	ld	c, d
   0473 C5            [11]  798 	push	bc
   0474 CDr00r00      [17]  799 	call	_put_pixel1
   0477 F1            [10]  800 	pop	af
   0478 33            [ 6]  801 	inc	sp
   0479 D1            [10]  802 	pop	de
   047A C1            [10]  803 	pop	bc
   047B                     804 00364$:
                            805 ;puzzmem.c:124: for (y=0;y<tailleTile;y++) {
   047B DD 34 F1      [23]  806 	inc	-15 (ix)
   047E 18 BC         [12]  807 	jr	00363$
   0480                     808 00367$:
                            809 ;puzzmem.c:123: for (x=0;x<tailleTile;x++) {
   0480 DD 34 F2      [23]  810 	inc	-14 (ix)
   0483 18 98         [12]  811 	jr	00366$
                            812 ;puzzmem.c:133: case 7 :
   0485                     813 00147$:
                            814 ;puzzmem.c:135: for (x=0;x<tailleTile;x++) {
   0485 DD 4E 07      [19]  815 	ld	c,7 (ix)
   0488 CB 39         [ 8]  816 	srl	c
   048A DD 36 F2 00   [19]  817 	ld	-14 (ix),#0x00
   048E                     818 00372$:
   048E DD 7E F2      [19]  819 	ld	a,-14 (ix)
   0491 DD 96 07      [19]  820 	sub	a, 7 (ix)
   0494 D2r84r14      [10]  821 	jp	NC,00323$
                            822 ;puzzmem.c:136: for (y=0;y<tailleTile;y++) {
   0497 79            [ 4]  823 	ld	a,c
   0498 DD 96 F2      [19]  824 	sub	a, -14 (ix)
   049B 3E 00         [ 7]  825 	ld	a,#0x00
   049D 17            [ 4]  826 	rla
   049E 5F            [ 4]  827 	ld	e,a
   049F DD 7E 04      [19]  828 	ld	a,4 (ix)
   04A2 DD 86 F2      [19]  829 	add	a, -14 (ix)
   04A5 57            [ 4]  830 	ld	d,a
   04A6 DD 72 F8      [19]  831 	ld	-8 (ix),d
   04A9 DD 36 F1 00   [19]  832 	ld	-15 (ix),#0x00
   04AD                     833 00369$:
   04AD DD 7E F1      [19]  834 	ld	a,-15 (ix)
   04B0 DD 96 07      [19]  835 	sub	a, 7 (ix)
   04B3 30 3C         [12]  836 	jr	NC,00373$
                            837 ;puzzmem.c:137: if (x>tailleTile/2) {
   04B5 7B            [ 4]  838 	ld	a,e
   04B6 B7            [ 4]  839 	or	a, a
   04B7 28 1D         [12]  840 	jr	Z,00149$
                            841 ;puzzmem.c:138: put_pixel1(offset_x+x,offset_y+y,2);
   04B9 DD 7E 05      [19]  842 	ld	a,5 (ix)
   04BC DD 86 F1      [19]  843 	add	a, -15 (ix)
   04BF 47            [ 4]  844 	ld	b,a
   04C0 C5            [11]  845 	push	bc
   04C1 D5            [11]  846 	push	de
   04C2 3E 02         [ 7]  847 	ld	a,#0x02
   04C4 F5            [11]  848 	push	af
   04C5 33            [ 6]  849 	inc	sp
   04C6 C5            [11]  850 	push	bc
   04C7 33            [ 6]  851 	inc	sp
   04C8 DD 7E F8      [19]  852 	ld	a,-8 (ix)
   04CB F5            [11]  853 	push	af
   04CC 33            [ 6]  854 	inc	sp
   04CD CDr00r00      [17]  855 	call	_put_pixel1
   04D0 F1            [10]  856 	pop	af
   04D1 33            [ 6]  857 	inc	sp
   04D2 D1            [10]  858 	pop	de
   04D3 C1            [10]  859 	pop	bc
   04D4 18 16         [12]  860 	jr	00370$
   04D6                     861 00149$:
                            862 ;puzzmem.c:140: put_pixel1(offset_x+x,offset_y+y,3);
   04D6 DD 7E 05      [19]  863 	ld	a,5 (ix)
   04D9 DD 86 F1      [19]  864 	add	a, -15 (ix)
   04DC 47            [ 4]  865 	ld	b,a
   04DD C5            [11]  866 	push	bc
   04DE D5            [11]  867 	push	de
   04DF 3E 03         [ 7]  868 	ld	a,#0x03
   04E1 F5            [11]  869 	push	af
   04E2 33            [ 6]  870 	inc	sp
   04E3 4A            [ 4]  871 	ld	c, d
   04E4 C5            [11]  872 	push	bc
   04E5 CDr00r00      [17]  873 	call	_put_pixel1
   04E8 F1            [10]  874 	pop	af
   04E9 33            [ 6]  875 	inc	sp
   04EA D1            [10]  876 	pop	de
   04EB C1            [10]  877 	pop	bc
   04EC                     878 00370$:
                            879 ;puzzmem.c:136: for (y=0;y<tailleTile;y++) {
   04EC DD 34 F1      [23]  880 	inc	-15 (ix)
   04EF 18 BC         [12]  881 	jr	00369$
   04F1                     882 00373$:
                            883 ;puzzmem.c:135: for (x=0;x<tailleTile;x++) {
   04F1 DD 34 F2      [23]  884 	inc	-14 (ix)
   04F4 18 98         [12]  885 	jr	00372$
                            886 ;puzzmem.c:145: case 8 :
   04F6                     887 00153$:
                            888 ;puzzmem.c:147: for (y=0;y<tailleTile;y++) {
   04F6 DD 7E 07      [19]  889 	ld	a,7 (ix)
   04F9 CB 3F         [ 8]  890 	srl	a
   04FB DD 77 FF      [19]  891 	ld	-1 (ix),a
   04FE DD 36 F1 00   [19]  892 	ld	-15 (ix),#0x00
   0502                     893 00378$:
   0502 DD 7E F1      [19]  894 	ld	a,-15 (ix)
   0505 DD 96 07      [19]  895 	sub	a, 7 (ix)
   0508 D2r84r14      [10]  896 	jp	NC,00323$
                            897 ;puzzmem.c:148: for (x=0;x<tailleTile;x++) {
   050B 1E 00         [ 7]  898 	ld	e,#0x00
   050D DD 7E F1      [19]  899 	ld	a,-15 (ix)
   0510 DD 96 FF      [19]  900 	sub	a, -1 (ix)
   0513 3E 00         [ 7]  901 	ld	a,#0x00
   0515 17            [ 4]  902 	rla
   0516 57            [ 4]  903 	ld	d,a
   0517 DD 7E 05      [19]  904 	ld	a,5 (ix)
   051A DD 86 F1      [19]  905 	add	a, -15 (ix)
   051D DD 77 F8      [19]  906 	ld	-8 (ix), a
   0520 DD 77 FA      [19]  907 	ld	-6 (ix),a
   0523 DD 7E F8      [19]  908 	ld	a,-8 (ix)
   0526 DD 77 FC      [19]  909 	ld	-4 (ix),a
   0529 DD 7E F8      [19]  910 	ld	a,-8 (ix)
   052C DD 77 FE      [19]  911 	ld	-2 (ix),a
   052F                     912 00375$:
   052F 7B            [ 4]  913 	ld	a,e
   0530 DD 96 07      [19]  914 	sub	a, 7 (ix)
   0533 D2r3Br06      [10]  915 	jp	NC,00379$
                            916 ;puzzmem.c:149: if (y<tailleTile/2) {
   0536 7A            [ 4]  917 	ld	a,d
   0537 B7            [ 4]  918 	or	a, a
   0538 CArBBr05      [10]  919 	jp	Z,00163$
                            920 ;puzzmem.c:150: if (x<tailleTile-4 && x%4==(4-mod4)%4) {
   053B DD 4E 07      [19]  921 	ld	c,7 (ix)
   053E 06 00         [ 7]  922 	ld	b,#0x00
   0540 79            [ 4]  923 	ld	a,c
   0541 C6 FC         [ 7]  924 	add	a,#0xfc
   0543 4F            [ 4]  925 	ld	c,a
   0544 78            [ 4]  926 	ld	a,b
   0545 CE FF         [ 7]  927 	adc	a,#0xff
   0547 47            [ 4]  928 	ld	b,a
   0548 6B            [ 4]  929 	ld	l,e
   0549 26 00         [ 7]  930 	ld	h,#0x00
   054B 7D            [ 4]  931 	ld	a,l
   054C 91            [ 4]  932 	sub	a, c
   054D 7C            [ 4]  933 	ld	a,h
   054E 98            [ 4]  934 	sbc	a, b
   054F E2r54r05      [10]  935 	jp	PO, 01149$
   0552 EE 80         [ 7]  936 	xor	a, #0x80
   0554                     937 01149$:
   0554 F2rA0r05      [10]  938 	jp	P,00155$
   0557 7B            [ 4]  939 	ld	a,e
   0558 E6 03         [ 7]  940 	and	a, #0x03
   055A DD 77 F7      [19]  941 	ld	-9 (ix),a
   055D DD 4E F0      [19]  942 	ld	c,-16 (ix)
   0560 06 00         [ 7]  943 	ld	b,#0x00
   0562 3E 04         [ 7]  944 	ld	a,#0x04
   0564 91            [ 4]  945 	sub	a, c
   0565 4F            [ 4]  946 	ld	c,a
   0566 3E 00         [ 7]  947 	ld	a,#0x00
   0568 98            [ 4]  948 	sbc	a, b
   0569 47            [ 4]  949 	ld	b,a
   056A D5            [11]  950 	push	de
   056B 21 04 00      [10]  951 	ld	hl,#0x0004
   056E E5            [11]  952 	push	hl
   056F C5            [11]  953 	push	bc
   0570 CDr00r00      [17]  954 	call	__modsint
   0573 F1            [10]  955 	pop	af
   0574 F1            [10]  956 	pop	af
   0575 D1            [10]  957 	pop	de
   0576 DD 7E F7      [19]  958 	ld	a, -9 (ix)
   0579 06 00         [ 7]  959 	ld	b, #0x00
   057B 95            [ 4]  960 	sub	a, l
   057C 20 22         [12]  961 	jr	NZ,00155$
   057E 78            [ 4]  962 	ld	a,b
   057F 94            [ 4]  963 	sub	a, h
   0580 20 1E         [12]  964 	jr	NZ,00155$
                            965 ;puzzmem.c:151: put_pixel_byte1(offset_x+x,offset_y+y,2);
   0582 DD 7E 04      [19]  966 	ld	a,4 (ix)
   0585 83            [ 4]  967 	add	a, e
   0586 4F            [ 4]  968 	ld	c,a
   0587 D5            [11]  969 	push	de
   0588 3E 02         [ 7]  970 	ld	a,#0x02
   058A F5            [11]  971 	push	af
   058B 33            [ 6]  972 	inc	sp
   058C DD 7E FE      [19]  973 	ld	a,-2 (ix)
   058F F5            [11]  974 	push	af
   0590 33            [ 6]  975 	inc	sp
   0591 79            [ 4]  976 	ld	a,c
   0592 F5            [11]  977 	push	af
   0593 33            [ 6]  978 	inc	sp
   0594 CDr00r00      [17]  979 	call	_put_pixel_byte1
   0597 F1            [10]  980 	pop	af
   0598 33            [ 6]  981 	inc	sp
   0599 D1            [10]  982 	pop	de
                            983 ;puzzmem.c:152: x+=3; // x+=4;
   059A 1C            [ 4]  984 	inc	e
   059B 1C            [ 4]  985 	inc	e
   059C 1C            [ 4]  986 	inc	e
   059D C3r37r06      [10]  987 	jp	00376$
   05A0                     988 00155$:
                            989 ;puzzmem.c:154: put_pixel1(offset_x+x,offset_y+y,2);
   05A0 DD 7E 04      [19]  990 	ld	a,4 (ix)
   05A3 83            [ 4]  991 	add	a, e
   05A4 4F            [ 4]  992 	ld	c,a
   05A5 D5            [11]  993 	push	de
   05A6 3E 02         [ 7]  994 	ld	a,#0x02
   05A8 F5            [11]  995 	push	af
   05A9 33            [ 6]  996 	inc	sp
   05AA DD 7E FC      [19]  997 	ld	a,-4 (ix)
   05AD F5            [11]  998 	push	af
   05AE 33            [ 6]  999 	inc	sp
   05AF 79            [ 4] 1000 	ld	a,c
   05B0 F5            [11] 1001 	push	af
   05B1 33            [ 6] 1002 	inc	sp
   05B2 CDr00r00      [17] 1003 	call	_put_pixel1
   05B5 F1            [10] 1004 	pop	af
   05B6 33            [ 6] 1005 	inc	sp
   05B7 D1            [10] 1006 	pop	de
   05B8 C3r37r06      [10] 1007 	jp	00376$
   05BB                    1008 00163$:
                           1009 ;puzzmem.c:157: if (x<tailleTile-4 && x%4==(4-mod4)%4) {
   05BB DD 4E 07      [19] 1010 	ld	c,7 (ix)
   05BE 06 00         [ 7] 1011 	ld	b,#0x00
   05C0 79            [ 4] 1012 	ld	a,c
   05C1 C6 FC         [ 7] 1013 	add	a,#0xfc
   05C3 4F            [ 4] 1014 	ld	c,a
   05C4 78            [ 4] 1015 	ld	a,b
   05C5 CE FF         [ 7] 1016 	adc	a,#0xff
   05C7 47            [ 4] 1017 	ld	b,a
   05C8 6B            [ 4] 1018 	ld	l,e
   05C9 26 00         [ 7] 1019 	ld	h,#0x00
   05CB 7D            [ 4] 1020 	ld	a,l
   05CC 91            [ 4] 1021 	sub	a, c
   05CD 7C            [ 4] 1022 	ld	a,h
   05CE 98            [ 4] 1023 	sbc	a, b
   05CF E2rD4r05      [10] 1024 	jp	PO, 01152$
   05D2 EE 80         [ 7] 1025 	xor	a, #0x80
   05D4                    1026 01152$:
   05D4 F2r1Fr06      [10] 1027 	jp	P,00159$
   05D7 7B            [ 4] 1028 	ld	a,e
   05D8 E6 03         [ 7] 1029 	and	a, #0x03
   05DA DD 77 F7      [19] 1030 	ld	-9 (ix),a
   05DD DD 4E F0      [19] 1031 	ld	c,-16 (ix)
   05E0 06 00         [ 7] 1032 	ld	b,#0x00
   05E2 3E 04         [ 7] 1033 	ld	a,#0x04
   05E4 91            [ 4] 1034 	sub	a, c
   05E5 4F            [ 4] 1035 	ld	c,a
   05E6 3E 00         [ 7] 1036 	ld	a,#0x00
   05E8 98            [ 4] 1037 	sbc	a, b
   05E9 47            [ 4] 1038 	ld	b,a
   05EA D5            [11] 1039 	push	de
   05EB 21 04 00      [10] 1040 	ld	hl,#0x0004
   05EE E5            [11] 1041 	push	hl
   05EF C5            [11] 1042 	push	bc
   05F0 CDr00r00      [17] 1043 	call	__modsint
   05F3 F1            [10] 1044 	pop	af
   05F4 F1            [10] 1045 	pop	af
   05F5 D1            [10] 1046 	pop	de
   05F6 DD 7E F7      [19] 1047 	ld	a, -9 (ix)
   05F9 06 00         [ 7] 1048 	ld	b, #0x00
   05FB 95            [ 4] 1049 	sub	a, l
   05FC 20 21         [12] 1050 	jr	NZ,00159$
   05FE 78            [ 4] 1051 	ld	a,b
   05FF 94            [ 4] 1052 	sub	a, h
   0600 20 1D         [12] 1053 	jr	NZ,00159$
                           1054 ;puzzmem.c:158: put_pixel_byte1(offset_x+x,offset_y+y,3);
   0602 DD 7E 04      [19] 1055 	ld	a,4 (ix)
   0605 83            [ 4] 1056 	add	a, e
   0606 4F            [ 4] 1057 	ld	c,a
   0607 D5            [11] 1058 	push	de
   0608 3E 03         [ 7] 1059 	ld	a,#0x03
   060A F5            [11] 1060 	push	af
   060B 33            [ 6] 1061 	inc	sp
   060C DD 7E FA      [19] 1062 	ld	a,-6 (ix)
   060F F5            [11] 1063 	push	af
   0610 33            [ 6] 1064 	inc	sp
   0611 79            [ 4] 1065 	ld	a,c
   0612 F5            [11] 1066 	push	af
   0613 33            [ 6] 1067 	inc	sp
   0614 CDr00r00      [17] 1068 	call	_put_pixel_byte1
   0617 F1            [10] 1069 	pop	af
   0618 33            [ 6] 1070 	inc	sp
   0619 D1            [10] 1071 	pop	de
                           1072 ;puzzmem.c:159: x+=3; // x+=4;
   061A 1C            [ 4] 1073 	inc	e
   061B 1C            [ 4] 1074 	inc	e
   061C 1C            [ 4] 1075 	inc	e
   061D 18 18         [12] 1076 	jr	00376$
   061F                    1077 00159$:
                           1078 ;puzzmem.c:161: put_pixel1(offset_x+x,offset_y+y,3);
   061F DD 7E 04      [19] 1079 	ld	a,4 (ix)
   0622 83            [ 4] 1080 	add	a, e
   0623 4F            [ 4] 1081 	ld	c,a
   0624 D5            [11] 1082 	push	de
   0625 3E 03         [ 7] 1083 	ld	a,#0x03
   0627 F5            [11] 1084 	push	af
   0628 33            [ 6] 1085 	inc	sp
   0629 DD 7E F8      [19] 1086 	ld	a,-8 (ix)
   062C F5            [11] 1087 	push	af
   062D 33            [ 6] 1088 	inc	sp
   062E 79            [ 4] 1089 	ld	a,c
   062F F5            [11] 1090 	push	af
   0630 33            [ 6] 1091 	inc	sp
   0631 CDr00r00      [17] 1092 	call	_put_pixel1
   0634 F1            [10] 1093 	pop	af
   0635 33            [ 6] 1094 	inc	sp
   0636 D1            [10] 1095 	pop	de
   0637                    1096 00376$:
                           1097 ;puzzmem.c:148: for (x=0;x<tailleTile;x++) {
   0637 1C            [ 4] 1098 	inc	e
   0638 C3r2Fr05      [10] 1099 	jp	00375$
   063B                    1100 00379$:
                           1101 ;puzzmem.c:147: for (y=0;y<tailleTile;y++) {
   063B DD 34 F1      [23] 1102 	inc	-15 (ix)
   063E C3r02r05      [10] 1103 	jp	00378$
                           1104 ;puzzmem.c:167: case 9 :
   0641                    1105 00167$:
                           1106 ;puzzmem.c:169: for (y=0;y<tailleTile;y++) {
   0641 DD 7E 07      [19] 1107 	ld	a,7 (ix)
   0644 CB 3F         [ 8] 1108 	srl	a
   0646 DD 77 FE      [19] 1109 	ld	-2 (ix),a
   0649 DD 36 F1 00   [19] 1110 	ld	-15 (ix),#0x00
   064D                    1111 00384$:
   064D DD 7E F1      [19] 1112 	ld	a,-15 (ix)
   0650 DD 96 07      [19] 1113 	sub	a, 7 (ix)
   0653 D2r84r14      [10] 1114 	jp	NC,00323$
                           1115 ;puzzmem.c:170: for (x=0;x<tailleTile;x++) {
   0656 1E 00         [ 7] 1116 	ld	e,#0x00
   0658 DD 7E FE      [19] 1117 	ld	a,-2 (ix)
   065B DD 96 F1      [19] 1118 	sub	a, -15 (ix)
   065E 3E 00         [ 7] 1119 	ld	a,#0x00
   0660 17            [ 4] 1120 	rla
   0661 57            [ 4] 1121 	ld	d,a
   0662 DD 7E 05      [19] 1122 	ld	a,5 (ix)
   0665 DD 86 F1      [19] 1123 	add	a, -15 (ix)
   0668 DD 77 F7      [19] 1124 	ld	-9 (ix), a
   066B DD 77 F8      [19] 1125 	ld	-8 (ix),a
   066E DD 7E F7      [19] 1126 	ld	a,-9 (ix)
   0671 DD 77 FA      [19] 1127 	ld	-6 (ix),a
   0674 DD 7E F7      [19] 1128 	ld	a,-9 (ix)
   0677 DD 77 FC      [19] 1129 	ld	-4 (ix),a
   067A                    1130 00381$:
   067A 7B            [ 4] 1131 	ld	a,e
   067B DD 96 07      [19] 1132 	sub	a, 7 (ix)
   067E D2r86r07      [10] 1133 	jp	NC,00385$
                           1134 ;puzzmem.c:171: if (y>tailleTile/2) {
   0681 7A            [ 4] 1135 	ld	a,d
   0682 B7            [ 4] 1136 	or	a, a
   0683 CAr06r07      [10] 1137 	jp	Z,00177$
                           1138 ;puzzmem.c:172: if (x<tailleTile-4 && x%4==(4-mod4)%4) {
   0686 DD 4E 07      [19] 1139 	ld	c,7 (ix)
   0689 06 00         [ 7] 1140 	ld	b,#0x00
   068B 79            [ 4] 1141 	ld	a,c
   068C C6 FC         [ 7] 1142 	add	a,#0xfc
   068E 4F            [ 4] 1143 	ld	c,a
   068F 78            [ 4] 1144 	ld	a,b
   0690 CE FF         [ 7] 1145 	adc	a,#0xff
   0692 47            [ 4] 1146 	ld	b,a
   0693 6B            [ 4] 1147 	ld	l,e
   0694 26 00         [ 7] 1148 	ld	h,#0x00
   0696 7D            [ 4] 1149 	ld	a,l
   0697 91            [ 4] 1150 	sub	a, c
   0698 7C            [ 4] 1151 	ld	a,h
   0699 98            [ 4] 1152 	sbc	a, b
   069A E2r9Fr06      [10] 1153 	jp	PO, 01155$
   069D EE 80         [ 7] 1154 	xor	a, #0x80
   069F                    1155 01155$:
   069F F2rEBr06      [10] 1156 	jp	P,00169$
   06A2 7B            [ 4] 1157 	ld	a,e
   06A3 E6 03         [ 7] 1158 	and	a, #0x03
   06A5 DD 77 FF      [19] 1159 	ld	-1 (ix),a
   06A8 DD 4E F0      [19] 1160 	ld	c,-16 (ix)
   06AB 06 00         [ 7] 1161 	ld	b,#0x00
   06AD 3E 04         [ 7] 1162 	ld	a,#0x04
   06AF 91            [ 4] 1163 	sub	a, c
   06B0 4F            [ 4] 1164 	ld	c,a
   06B1 3E 00         [ 7] 1165 	ld	a,#0x00
   06B3 98            [ 4] 1166 	sbc	a, b
   06B4 47            [ 4] 1167 	ld	b,a
   06B5 D5            [11] 1168 	push	de
   06B6 21 04 00      [10] 1169 	ld	hl,#0x0004
   06B9 E5            [11] 1170 	push	hl
   06BA C5            [11] 1171 	push	bc
   06BB CDr00r00      [17] 1172 	call	__modsint
   06BE F1            [10] 1173 	pop	af
   06BF F1            [10] 1174 	pop	af
   06C0 D1            [10] 1175 	pop	de
   06C1 DD 7E FF      [19] 1176 	ld	a, -1 (ix)
   06C4 06 00         [ 7] 1177 	ld	b, #0x00
   06C6 95            [ 4] 1178 	sub	a, l
   06C7 20 22         [12] 1179 	jr	NZ,00169$
   06C9 78            [ 4] 1180 	ld	a,b
   06CA 94            [ 4] 1181 	sub	a, h
   06CB 20 1E         [12] 1182 	jr	NZ,00169$
                           1183 ;puzzmem.c:173: put_pixel_byte1(offset_x+x,offset_y+y,2);
   06CD DD 7E 04      [19] 1184 	ld	a,4 (ix)
   06D0 83            [ 4] 1185 	add	a, e
   06D1 4F            [ 4] 1186 	ld	c,a
   06D2 D5            [11] 1187 	push	de
   06D3 3E 02         [ 7] 1188 	ld	a,#0x02
   06D5 F5            [11] 1189 	push	af
   06D6 33            [ 6] 1190 	inc	sp
   06D7 DD 7E FC      [19] 1191 	ld	a,-4 (ix)
   06DA F5            [11] 1192 	push	af
   06DB 33            [ 6] 1193 	inc	sp
   06DC 79            [ 4] 1194 	ld	a,c
   06DD F5            [11] 1195 	push	af
   06DE 33            [ 6] 1196 	inc	sp
   06DF CDr00r00      [17] 1197 	call	_put_pixel_byte1
   06E2 F1            [10] 1198 	pop	af
   06E3 33            [ 6] 1199 	inc	sp
   06E4 D1            [10] 1200 	pop	de
                           1201 ;puzzmem.c:174: x+=3; // x+=4;
   06E5 1C            [ 4] 1202 	inc	e
   06E6 1C            [ 4] 1203 	inc	e
   06E7 1C            [ 4] 1204 	inc	e
   06E8 C3r82r07      [10] 1205 	jp	00382$
   06EB                    1206 00169$:
                           1207 ;puzzmem.c:176: put_pixel1(offset_x+x,offset_y+y,2);
   06EB DD 7E 04      [19] 1208 	ld	a,4 (ix)
   06EE 83            [ 4] 1209 	add	a, e
   06EF 4F            [ 4] 1210 	ld	c,a
   06F0 D5            [11] 1211 	push	de
   06F1 3E 02         [ 7] 1212 	ld	a,#0x02
   06F3 F5            [11] 1213 	push	af
   06F4 33            [ 6] 1214 	inc	sp
   06F5 DD 7E FA      [19] 1215 	ld	a,-6 (ix)
   06F8 F5            [11] 1216 	push	af
   06F9 33            [ 6] 1217 	inc	sp
   06FA 79            [ 4] 1218 	ld	a,c
   06FB F5            [11] 1219 	push	af
   06FC 33            [ 6] 1220 	inc	sp
   06FD CDr00r00      [17] 1221 	call	_put_pixel1
   0700 F1            [10] 1222 	pop	af
   0701 33            [ 6] 1223 	inc	sp
   0702 D1            [10] 1224 	pop	de
   0703 C3r82r07      [10] 1225 	jp	00382$
   0706                    1226 00177$:
                           1227 ;puzzmem.c:179: if (x<tailleTile-4 && x%4==(4-mod4)%4) {
   0706 DD 4E 07      [19] 1228 	ld	c,7 (ix)
   0709 06 00         [ 7] 1229 	ld	b,#0x00
   070B 79            [ 4] 1230 	ld	a,c
   070C C6 FC         [ 7] 1231 	add	a,#0xfc
   070E 4F            [ 4] 1232 	ld	c,a
   070F 78            [ 4] 1233 	ld	a,b
   0710 CE FF         [ 7] 1234 	adc	a,#0xff
   0712 47            [ 4] 1235 	ld	b,a
   0713 6B            [ 4] 1236 	ld	l,e
   0714 26 00         [ 7] 1237 	ld	h,#0x00
   0716 7D            [ 4] 1238 	ld	a,l
   0717 91            [ 4] 1239 	sub	a, c
   0718 7C            [ 4] 1240 	ld	a,h
   0719 98            [ 4] 1241 	sbc	a, b
   071A E2r1Fr07      [10] 1242 	jp	PO, 01158$
   071D EE 80         [ 7] 1243 	xor	a, #0x80
   071F                    1244 01158$:
   071F F2r6Ar07      [10] 1245 	jp	P,00173$
   0722 7B            [ 4] 1246 	ld	a,e
   0723 E6 03         [ 7] 1247 	and	a, #0x03
   0725 DD 77 FF      [19] 1248 	ld	-1 (ix),a
   0728 DD 4E F0      [19] 1249 	ld	c,-16 (ix)
   072B 06 00         [ 7] 1250 	ld	b,#0x00
   072D 3E 04         [ 7] 1251 	ld	a,#0x04
   072F 91            [ 4] 1252 	sub	a, c
   0730 4F            [ 4] 1253 	ld	c,a
   0731 3E 00         [ 7] 1254 	ld	a,#0x00
   0733 98            [ 4] 1255 	sbc	a, b
   0734 47            [ 4] 1256 	ld	b,a
   0735 D5            [11] 1257 	push	de
   0736 21 04 00      [10] 1258 	ld	hl,#0x0004
   0739 E5            [11] 1259 	push	hl
   073A C5            [11] 1260 	push	bc
   073B CDr00r00      [17] 1261 	call	__modsint
   073E F1            [10] 1262 	pop	af
   073F F1            [10] 1263 	pop	af
   0740 D1            [10] 1264 	pop	de
   0741 DD 7E FF      [19] 1265 	ld	a, -1 (ix)
   0744 06 00         [ 7] 1266 	ld	b, #0x00
   0746 95            [ 4] 1267 	sub	a, l
   0747 20 21         [12] 1268 	jr	NZ,00173$
   0749 78            [ 4] 1269 	ld	a,b
   074A 94            [ 4] 1270 	sub	a, h
   074B 20 1D         [12] 1271 	jr	NZ,00173$
                           1272 ;puzzmem.c:180: put_pixel_byte1(offset_x+x,offset_y+y,3);
   074D DD 7E 04      [19] 1273 	ld	a,4 (ix)
   0750 83            [ 4] 1274 	add	a, e
   0751 4F            [ 4] 1275 	ld	c,a
   0752 D5            [11] 1276 	push	de
   0753 3E 03         [ 7] 1277 	ld	a,#0x03
   0755 F5            [11] 1278 	push	af
   0756 33            [ 6] 1279 	inc	sp
   0757 DD 7E F8      [19] 1280 	ld	a,-8 (ix)
   075A F5            [11] 1281 	push	af
   075B 33            [ 6] 1282 	inc	sp
   075C 79            [ 4] 1283 	ld	a,c
   075D F5            [11] 1284 	push	af
   075E 33            [ 6] 1285 	inc	sp
   075F CDr00r00      [17] 1286 	call	_put_pixel_byte1
   0762 F1            [10] 1287 	pop	af
   0763 33            [ 6] 1288 	inc	sp
   0764 D1            [10] 1289 	pop	de
                           1290 ;puzzmem.c:181: x+=3; // x+=4;
   0765 1C            [ 4] 1291 	inc	e
   0766 1C            [ 4] 1292 	inc	e
   0767 1C            [ 4] 1293 	inc	e
   0768 18 18         [12] 1294 	jr	00382$
   076A                    1295 00173$:
                           1296 ;puzzmem.c:183: put_pixel1(offset_x+x,offset_y+y,3);
   076A DD 7E 04      [19] 1297 	ld	a,4 (ix)
   076D 83            [ 4] 1298 	add	a, e
   076E 4F            [ 4] 1299 	ld	c,a
   076F D5            [11] 1300 	push	de
   0770 3E 03         [ 7] 1301 	ld	a,#0x03
   0772 F5            [11] 1302 	push	af
   0773 33            [ 6] 1303 	inc	sp
   0774 DD 7E F7      [19] 1304 	ld	a,-9 (ix)
   0777 F5            [11] 1305 	push	af
   0778 33            [ 6] 1306 	inc	sp
   0779 79            [ 4] 1307 	ld	a,c
   077A F5            [11] 1308 	push	af
   077B 33            [ 6] 1309 	inc	sp
   077C CDr00r00      [17] 1310 	call	_put_pixel1
   077F F1            [10] 1311 	pop	af
   0780 33            [ 6] 1312 	inc	sp
   0781 D1            [10] 1313 	pop	de
   0782                    1314 00382$:
                           1315 ;puzzmem.c:170: for (x=0;x<tailleTile;x++) {
   0782 1C            [ 4] 1316 	inc	e
   0783 C3r7Ar06      [10] 1317 	jp	00381$
   0786                    1318 00385$:
                           1319 ;puzzmem.c:169: for (y=0;y<tailleTile;y++) {
   0786 DD 34 F1      [23] 1320 	inc	-15 (ix)
   0789 C3r4Dr06      [10] 1321 	jp	00384$
                           1322 ;puzzmem.c:189: case 10 :
   078C                    1323 00181$:
                           1324 ;puzzmem.c:191: for (y=0;y<tailleTile;y++) {
   078C DD 4E 07      [19] 1325 	ld	c,7 (ix)
   078F CB 39         [ 8] 1326 	srl	c
   0791 DD 36 F1 00   [19] 1327 	ld	-15 (ix),#0x00
   0795                    1328 00390$:
   0795 DD 7E F1      [19] 1329 	ld	a,-15 (ix)
   0798 DD 96 07      [19] 1330 	sub	a, 7 (ix)
   079B D2r84r14      [10] 1331 	jp	NC,00323$
                           1332 ;puzzmem.c:192: for (x=0;x<tailleTile;x++) {
   079E 1E 00         [ 7] 1333 	ld	e,#0x00
   07A0 DD 7E F1      [19] 1334 	ld	a,-15 (ix)
   07A3 91            [ 4] 1335 	sub	a, c
   07A4 3E 00         [ 7] 1336 	ld	a,#0x00
   07A6 17            [ 4] 1337 	rla
   07A7 DD 77 FE      [19] 1338 	ld	-2 (ix),a
   07AA DD 7E 05      [19] 1339 	ld	a,5 (ix)
   07AD DD 86 F1      [19] 1340 	add	a, -15 (ix)
   07B0 DD 77 F7      [19] 1341 	ld	-9 (ix), a
   07B3 DD 77 F8      [19] 1342 	ld	-8 (ix),a
   07B6 DD 7E F7      [19] 1343 	ld	a,-9 (ix)
   07B9 DD 77 FA      [19] 1344 	ld	-6 (ix),a
   07BC DD 7E F7      [19] 1345 	ld	a,-9 (ix)
   07BF DD 77 FC      [19] 1346 	ld	-4 (ix),a
   07C2                    1347 00387$:
   07C2 7B            [ 4] 1348 	ld	a,e
   07C3 DD 96 07      [19] 1349 	sub	a, 7 (ix)
   07C6 D2r95r08      [10] 1350 	jp	NC,00391$
                           1351 ;puzzmem.c:193: if (x<tailleTile/2 && y<tailleTile/2) {
   07C9 7B            [ 4] 1352 	ld	a,e
   07CA 91            [ 4] 1353 	sub	a, c
   07CB 30 22         [12] 1354 	jr	NC,00190$
   07CD DD 7E F1      [19] 1355 	ld	a,-15 (ix)
   07D0 91            [ 4] 1356 	sub	a, c
   07D1 30 1C         [12] 1357 	jr	NC,00190$
                           1358 ;puzzmem.c:194: put_pixel1(offset_x+x,offset_y+y,2);
   07D3 DD 7E 04      [19] 1359 	ld	a,4 (ix)
   07D6 83            [ 4] 1360 	add	a, e
   07D7 47            [ 4] 1361 	ld	b,a
   07D8 C5            [11] 1362 	push	bc
   07D9 D5            [11] 1363 	push	de
   07DA 3E 02         [ 7] 1364 	ld	a,#0x02
   07DC F5            [11] 1365 	push	af
   07DD 33            [ 6] 1366 	inc	sp
   07DE DD 7E FC      [19] 1367 	ld	a,-4 (ix)
   07E1 F5            [11] 1368 	push	af
   07E2 33            [ 6] 1369 	inc	sp
   07E3 C5            [11] 1370 	push	bc
   07E4 33            [ 6] 1371 	inc	sp
   07E5 CDr00r00      [17] 1372 	call	_put_pixel1
   07E8 F1            [10] 1373 	pop	af
   07E9 33            [ 6] 1374 	inc	sp
   07EA D1            [10] 1375 	pop	de
   07EB C1            [10] 1376 	pop	bc
   07EC C3r91r08      [10] 1377 	jp	00388$
   07EF                    1378 00190$:
                           1379 ;puzzmem.c:195: } else if (y<tailleTile/2) {
   07EF DD 7E FE      [19] 1380 	ld	a,-2 (ix)
   07F2 B7            [ 4] 1381 	or	a, a
   07F3 28 1C         [12] 1382 	jr	Z,00187$
                           1383 ;puzzmem.c:196: put_pixel1(offset_x+x,offset_y+y,3);
   07F5 DD 7E 04      [19] 1384 	ld	a,4 (ix)
   07F8 83            [ 4] 1385 	add	a, e
   07F9 47            [ 4] 1386 	ld	b,a
   07FA C5            [11] 1387 	push	bc
   07FB D5            [11] 1388 	push	de
   07FC 3E 03         [ 7] 1389 	ld	a,#0x03
   07FE F5            [11] 1390 	push	af
   07FF 33            [ 6] 1391 	inc	sp
   0800 DD 7E FA      [19] 1392 	ld	a,-6 (ix)
   0803 F5            [11] 1393 	push	af
   0804 33            [ 6] 1394 	inc	sp
   0805 C5            [11] 1395 	push	bc
   0806 33            [ 6] 1396 	inc	sp
   0807 CDr00r00      [17] 1397 	call	_put_pixel1
   080A F1            [10] 1398 	pop	af
   080B 33            [ 6] 1399 	inc	sp
   080C D1            [10] 1400 	pop	de
   080D C1            [10] 1401 	pop	bc
   080E C3r91r08      [10] 1402 	jp	00388$
   0811                    1403 00187$:
                           1404 ;puzzmem.c:198: if (x<tailleTile-4 && x%4==(4-mod4)%4) {
   0811 DD 7E 07      [19] 1405 	ld	a, 7 (ix)
   0814 16 00         [ 7] 1406 	ld	d, #0x00
   0816 C6 FC         [ 7] 1407 	add	a,#0xfc
   0818 47            [ 4] 1408 	ld	b,a
   0819 7A            [ 4] 1409 	ld	a,d
   081A CE FF         [ 7] 1410 	adc	a,#0xff
   081C 57            [ 4] 1411 	ld	d,a
   081D 6B            [ 4] 1412 	ld	l,e
   081E 26 00         [ 7] 1413 	ld	h,#0x00
   0820 7D            [ 4] 1414 	ld	a,l
   0821 90            [ 4] 1415 	sub	a, b
   0822 7C            [ 4] 1416 	ld	a,h
   0823 9A            [ 4] 1417 	sbc	a, d
   0824 E2r29r08      [10] 1418 	jp	PO, 01161$
   0827 EE 80         [ 7] 1419 	xor	a, #0x80
   0829                    1420 01161$:
   0829 F2r78r08      [10] 1421 	jp	P,00183$
   082C 7B            [ 4] 1422 	ld	a,e
   082D E6 03         [ 7] 1423 	and	a, #0x03
   082F DD 77 FF      [19] 1424 	ld	-1 (ix),a
   0832 DD 56 F0      [19] 1425 	ld	d,-16 (ix)
   0835 06 00         [ 7] 1426 	ld	b,#0x00
   0837 3E 04         [ 7] 1427 	ld	a,#0x04
   0839 92            [ 4] 1428 	sub	a, d
   083A 57            [ 4] 1429 	ld	d,a
   083B 3E 00         [ 7] 1430 	ld	a,#0x00
   083D 98            [ 4] 1431 	sbc	a, b
   083E 47            [ 4] 1432 	ld	b,a
   083F C5            [11] 1433 	push	bc
   0840 D5            [11] 1434 	push	de
   0841 21 04 00      [10] 1435 	ld	hl,#0x0004
   0844 E5            [11] 1436 	push	hl
   0845 4A            [ 4] 1437 	ld	c,d
   0846 C5            [11] 1438 	push	bc
   0847 CDr00r00      [17] 1439 	call	__modsint
   084A F1            [10] 1440 	pop	af
   084B F1            [10] 1441 	pop	af
   084C D1            [10] 1442 	pop	de
   084D C1            [10] 1443 	pop	bc
   084E DD 7E FF      [19] 1444 	ld	a, -1 (ix)
   0851 16 00         [ 7] 1445 	ld	d, #0x00
   0853 95            [ 4] 1446 	sub	a, l
   0854 20 22         [12] 1447 	jr	NZ,00183$
   0856 7A            [ 4] 1448 	ld	a,d
   0857 94            [ 4] 1449 	sub	a, h
   0858 20 1E         [12] 1450 	jr	NZ,00183$
                           1451 ;puzzmem.c:199: put_pixel_byte1(offset_x+x,offset_y+y,3);
   085A DD 7E 04      [19] 1452 	ld	a,4 (ix)
   085D 83            [ 4] 1453 	add	a, e
   085E 47            [ 4] 1454 	ld	b,a
   085F C5            [11] 1455 	push	bc
   0860 D5            [11] 1456 	push	de
   0861 3E 03         [ 7] 1457 	ld	a,#0x03
   0863 F5            [11] 1458 	push	af
   0864 33            [ 6] 1459 	inc	sp
   0865 DD 7E F8      [19] 1460 	ld	a,-8 (ix)
   0868 F5            [11] 1461 	push	af
   0869 33            [ 6] 1462 	inc	sp
   086A C5            [11] 1463 	push	bc
   086B 33            [ 6] 1464 	inc	sp
   086C CDr00r00      [17] 1465 	call	_put_pixel_byte1
   086F F1            [10] 1466 	pop	af
   0870 33            [ 6] 1467 	inc	sp
   0871 D1            [10] 1468 	pop	de
   0872 C1            [10] 1469 	pop	bc
                           1470 ;puzzmem.c:200: x+=3; // x+=4;
   0873 1C            [ 4] 1471 	inc	e
   0874 1C            [ 4] 1472 	inc	e
   0875 1C            [ 4] 1473 	inc	e
   0876 18 19         [12] 1474 	jr	00388$
   0878                    1475 00183$:
                           1476 ;puzzmem.c:202: put_pixel1(offset_x+x,offset_y+y,3);
   0878 DD 7E 04      [19] 1477 	ld	a,4 (ix)
   087B 83            [ 4] 1478 	add	a, e
   087C 47            [ 4] 1479 	ld	b,a
   087D C5            [11] 1480 	push	bc
   087E D5            [11] 1481 	push	de
   087F 3E 03         [ 7] 1482 	ld	a,#0x03
   0881 F5            [11] 1483 	push	af
   0882 33            [ 6] 1484 	inc	sp
   0883 DD 7E F7      [19] 1485 	ld	a,-9 (ix)
   0886 F5            [11] 1486 	push	af
   0887 33            [ 6] 1487 	inc	sp
   0888 C5            [11] 1488 	push	bc
   0889 33            [ 6] 1489 	inc	sp
   088A CDr00r00      [17] 1490 	call	_put_pixel1
   088D F1            [10] 1491 	pop	af
   088E 33            [ 6] 1492 	inc	sp
   088F D1            [10] 1493 	pop	de
   0890 C1            [10] 1494 	pop	bc
   0891                    1495 00388$:
                           1496 ;puzzmem.c:192: for (x=0;x<tailleTile;x++) {
   0891 1C            [ 4] 1497 	inc	e
   0892 C3rC2r07      [10] 1498 	jp	00387$
   0895                    1499 00391$:
                           1500 ;puzzmem.c:191: for (y=0;y<tailleTile;y++) {
   0895 DD 34 F1      [23] 1501 	inc	-15 (ix)
   0898 C3r95r07      [10] 1502 	jp	00390$
                           1503 ;puzzmem.c:208: case 11 :
   089B                    1504 00195$:
                           1505 ;puzzmem.c:210: for (y=0;y<tailleTile;y++) {
   089B DD 4E 07      [19] 1506 	ld	c,7 (ix)
   089E CB 39         [ 8] 1507 	srl	c
   08A0 DD 36 F1 00   [19] 1508 	ld	-15 (ix),#0x00
   08A4                    1509 00396$:
   08A4 DD 7E F1      [19] 1510 	ld	a,-15 (ix)
   08A7 DD 96 07      [19] 1511 	sub	a, 7 (ix)
   08AA D2r84r14      [10] 1512 	jp	NC,00323$
                           1513 ;puzzmem.c:211: for (x=0;x<tailleTile;x++) {
   08AD 1E 00         [ 7] 1514 	ld	e,#0x00
   08AF DD 7E F1      [19] 1515 	ld	a,-15 (ix)
   08B2 91            [ 4] 1516 	sub	a, c
   08B3 3E 00         [ 7] 1517 	ld	a,#0x00
   08B5 17            [ 4] 1518 	rla
   08B6 DD 77 FE      [19] 1519 	ld	-2 (ix),a
   08B9 DD 7E 05      [19] 1520 	ld	a,5 (ix)
   08BC DD 86 F1      [19] 1521 	add	a, -15 (ix)
   08BF DD 77 F7      [19] 1522 	ld	-9 (ix), a
   08C2 DD 77 F8      [19] 1523 	ld	-8 (ix),a
   08C5 DD 7E F7      [19] 1524 	ld	a,-9 (ix)
   08C8 DD 77 FA      [19] 1525 	ld	-6 (ix),a
   08CB DD 7E F7      [19] 1526 	ld	a,-9 (ix)
   08CE DD 77 FC      [19] 1527 	ld	-4 (ix),a
   08D1                    1528 00393$:
   08D1 7B            [ 4] 1529 	ld	a,e
   08D2 DD 96 07      [19] 1530 	sub	a, 7 (ix)
   08D5 D2rA4r09      [10] 1531 	jp	NC,00397$
                           1532 ;puzzmem.c:212: if (x>tailleTile/2 && y<tailleTile/2) {
   08D8 79            [ 4] 1533 	ld	a,c
   08D9 93            [ 4] 1534 	sub	a, e
   08DA 30 22         [12] 1535 	jr	NC,00204$
   08DC DD 7E F1      [19] 1536 	ld	a,-15 (ix)
   08DF 91            [ 4] 1537 	sub	a, c
   08E0 30 1C         [12] 1538 	jr	NC,00204$
                           1539 ;puzzmem.c:213: put_pixel1(offset_x+x,offset_y+y,2);
   08E2 DD 7E 04      [19] 1540 	ld	a,4 (ix)
   08E5 83            [ 4] 1541 	add	a, e
   08E6 47            [ 4] 1542 	ld	b,a
   08E7 C5            [11] 1543 	push	bc
   08E8 D5            [11] 1544 	push	de
   08E9 3E 02         [ 7] 1545 	ld	a,#0x02
   08EB F5            [11] 1546 	push	af
   08EC 33            [ 6] 1547 	inc	sp
   08ED DD 7E FC      [19] 1548 	ld	a,-4 (ix)
   08F0 F5            [11] 1549 	push	af
   08F1 33            [ 6] 1550 	inc	sp
   08F2 C5            [11] 1551 	push	bc
   08F3 33            [ 6] 1552 	inc	sp
   08F4 CDr00r00      [17] 1553 	call	_put_pixel1
   08F7 F1            [10] 1554 	pop	af
   08F8 33            [ 6] 1555 	inc	sp
   08F9 D1            [10] 1556 	pop	de
   08FA C1            [10] 1557 	pop	bc
   08FB C3rA0r09      [10] 1558 	jp	00394$
   08FE                    1559 00204$:
                           1560 ;puzzmem.c:214: } else if (y<tailleTile/2) {
   08FE DD 7E FE      [19] 1561 	ld	a,-2 (ix)
   0901 B7            [ 4] 1562 	or	a, a
   0902 28 1C         [12] 1563 	jr	Z,00201$
                           1564 ;puzzmem.c:215: put_pixel1(offset_x+x,offset_y+y,3);
   0904 DD 7E 04      [19] 1565 	ld	a,4 (ix)
   0907 83            [ 4] 1566 	add	a, e
   0908 47            [ 4] 1567 	ld	b,a
   0909 C5            [11] 1568 	push	bc
   090A D5            [11] 1569 	push	de
   090B 3E 03         [ 7] 1570 	ld	a,#0x03
   090D F5            [11] 1571 	push	af
   090E 33            [ 6] 1572 	inc	sp
   090F DD 7E FA      [19] 1573 	ld	a,-6 (ix)
   0912 F5            [11] 1574 	push	af
   0913 33            [ 6] 1575 	inc	sp
   0914 C5            [11] 1576 	push	bc
   0915 33            [ 6] 1577 	inc	sp
   0916 CDr00r00      [17] 1578 	call	_put_pixel1
   0919 F1            [10] 1579 	pop	af
   091A 33            [ 6] 1580 	inc	sp
   091B D1            [10] 1581 	pop	de
   091C C1            [10] 1582 	pop	bc
   091D C3rA0r09      [10] 1583 	jp	00394$
   0920                    1584 00201$:
                           1585 ;puzzmem.c:217: if (x<tailleTile-4 && x%4==(4-mod4)%4) {
   0920 DD 7E 07      [19] 1586 	ld	a, 7 (ix)
   0923 16 00         [ 7] 1587 	ld	d, #0x00
   0925 C6 FC         [ 7] 1588 	add	a,#0xfc
   0927 47            [ 4] 1589 	ld	b,a
   0928 7A            [ 4] 1590 	ld	a,d
   0929 CE FF         [ 7] 1591 	adc	a,#0xff
   092B 57            [ 4] 1592 	ld	d,a
   092C 6B            [ 4] 1593 	ld	l,e
   092D 26 00         [ 7] 1594 	ld	h,#0x00
   092F 7D            [ 4] 1595 	ld	a,l
   0930 90            [ 4] 1596 	sub	a, b
   0931 7C            [ 4] 1597 	ld	a,h
   0932 9A            [ 4] 1598 	sbc	a, d
   0933 E2r38r09      [10] 1599 	jp	PO, 01164$
   0936 EE 80         [ 7] 1600 	xor	a, #0x80
   0938                    1601 01164$:
   0938 F2r87r09      [10] 1602 	jp	P,00197$
   093B 7B            [ 4] 1603 	ld	a,e
   093C E6 03         [ 7] 1604 	and	a, #0x03
   093E DD 77 FF      [19] 1605 	ld	-1 (ix),a
   0941 DD 56 F0      [19] 1606 	ld	d,-16 (ix)
   0944 06 00         [ 7] 1607 	ld	b,#0x00
   0946 3E 04         [ 7] 1608 	ld	a,#0x04
   0948 92            [ 4] 1609 	sub	a, d
   0949 57            [ 4] 1610 	ld	d,a
   094A 3E 00         [ 7] 1611 	ld	a,#0x00
   094C 98            [ 4] 1612 	sbc	a, b
   094D 47            [ 4] 1613 	ld	b,a
   094E C5            [11] 1614 	push	bc
   094F D5            [11] 1615 	push	de
   0950 21 04 00      [10] 1616 	ld	hl,#0x0004
   0953 E5            [11] 1617 	push	hl
   0954 4A            [ 4] 1618 	ld	c,d
   0955 C5            [11] 1619 	push	bc
   0956 CDr00r00      [17] 1620 	call	__modsint
   0959 F1            [10] 1621 	pop	af
   095A F1            [10] 1622 	pop	af
   095B D1            [10] 1623 	pop	de
   095C C1            [10] 1624 	pop	bc
   095D DD 7E FF      [19] 1625 	ld	a, -1 (ix)
   0960 16 00         [ 7] 1626 	ld	d, #0x00
   0962 95            [ 4] 1627 	sub	a, l
   0963 20 22         [12] 1628 	jr	NZ,00197$
   0965 7A            [ 4] 1629 	ld	a,d
   0966 94            [ 4] 1630 	sub	a, h
   0967 20 1E         [12] 1631 	jr	NZ,00197$
                           1632 ;puzzmem.c:218: put_pixel_byte1(offset_x+x,offset_y+y,3);
   0969 DD 7E 04      [19] 1633 	ld	a,4 (ix)
   096C 83            [ 4] 1634 	add	a, e
   096D 47            [ 4] 1635 	ld	b,a
   096E C5            [11] 1636 	push	bc
   096F D5            [11] 1637 	push	de
   0970 3E 03         [ 7] 1638 	ld	a,#0x03
   0972 F5            [11] 1639 	push	af
   0973 33            [ 6] 1640 	inc	sp
   0974 DD 7E F8      [19] 1641 	ld	a,-8 (ix)
   0977 F5            [11] 1642 	push	af
   0978 33            [ 6] 1643 	inc	sp
   0979 C5            [11] 1644 	push	bc
   097A 33            [ 6] 1645 	inc	sp
   097B CDr00r00      [17] 1646 	call	_put_pixel_byte1
   097E F1            [10] 1647 	pop	af
   097F 33            [ 6] 1648 	inc	sp
   0980 D1            [10] 1649 	pop	de
   0981 C1            [10] 1650 	pop	bc
                           1651 ;puzzmem.c:219: x+=3; // x+=4;
   0982 1C            [ 4] 1652 	inc	e
   0983 1C            [ 4] 1653 	inc	e
   0984 1C            [ 4] 1654 	inc	e
   0985 18 19         [12] 1655 	jr	00394$
   0987                    1656 00197$:
                           1657 ;puzzmem.c:221: put_pixel1(offset_x+x,offset_y+y,3);
   0987 DD 7E 04      [19] 1658 	ld	a,4 (ix)
   098A 83            [ 4] 1659 	add	a, e
   098B 47            [ 4] 1660 	ld	b,a
   098C C5            [11] 1661 	push	bc
   098D D5            [11] 1662 	push	de
   098E 3E 03         [ 7] 1663 	ld	a,#0x03
   0990 F5            [11] 1664 	push	af
   0991 33            [ 6] 1665 	inc	sp
   0992 DD 7E F7      [19] 1666 	ld	a,-9 (ix)
   0995 F5            [11] 1667 	push	af
   0996 33            [ 6] 1668 	inc	sp
   0997 C5            [11] 1669 	push	bc
   0998 33            [ 6] 1670 	inc	sp
   0999 CDr00r00      [17] 1671 	call	_put_pixel1
   099C F1            [10] 1672 	pop	af
   099D 33            [ 6] 1673 	inc	sp
   099E D1            [10] 1674 	pop	de
   099F C1            [10] 1675 	pop	bc
   09A0                    1676 00394$:
                           1677 ;puzzmem.c:211: for (x=0;x<tailleTile;x++) {
   09A0 1C            [ 4] 1678 	inc	e
   09A1 C3rD1r08      [10] 1679 	jp	00393$
   09A4                    1680 00397$:
                           1681 ;puzzmem.c:210: for (y=0;y<tailleTile;y++) {
   09A4 DD 34 F1      [23] 1682 	inc	-15 (ix)
   09A7 C3rA4r08      [10] 1683 	jp	00396$
                           1684 ;puzzmem.c:227: case 12 :
   09AA                    1685 00209$:
                           1686 ;puzzmem.c:229: for (y=0;y<tailleTile;y++) {
   09AA DD 4E 07      [19] 1687 	ld	c,7 (ix)
   09AD CB 39         [ 8] 1688 	srl	c
   09AF DD 36 F1 00   [19] 1689 	ld	-15 (ix),#0x00
   09B3                    1690 00402$:
   09B3 DD 7E F1      [19] 1691 	ld	a,-15 (ix)
   09B6 DD 96 07      [19] 1692 	sub	a, 7 (ix)
   09B9 D2r84r14      [10] 1693 	jp	NC,00323$
                           1694 ;puzzmem.c:230: for (x=0;x<tailleTile;x++) {
   09BC 1E 00         [ 7] 1695 	ld	e,#0x00
   09BE 79            [ 4] 1696 	ld	a,c
   09BF DD 96 F1      [19] 1697 	sub	a, -15 (ix)
   09C2 3E 00         [ 7] 1698 	ld	a,#0x00
   09C4 17            [ 4] 1699 	rla
   09C5 DD 77 FE      [19] 1700 	ld	-2 (ix),a
   09C8 DD 7E 05      [19] 1701 	ld	a,5 (ix)
   09CB DD 86 F1      [19] 1702 	add	a, -15 (ix)
   09CE DD 77 F7      [19] 1703 	ld	-9 (ix), a
   09D1 DD 77 F8      [19] 1704 	ld	-8 (ix),a
   09D4 DD 7E F7      [19] 1705 	ld	a,-9 (ix)
   09D7 DD 77 FA      [19] 1706 	ld	-6 (ix),a
   09DA DD 7E F7      [19] 1707 	ld	a,-9 (ix)
   09DD DD 77 FC      [19] 1708 	ld	-4 (ix),a
   09E0                    1709 00399$:
   09E0 7B            [ 4] 1710 	ld	a,e
   09E1 DD 96 07      [19] 1711 	sub	a, 7 (ix)
   09E4 D2rB2r0A      [10] 1712 	jp	NC,00403$
                           1713 ;puzzmem.c:231: if (x>tailleTile/2 && y>tailleTile/2) {
   09E7 79            [ 4] 1714 	ld	a,c
   09E8 BB            [ 4] 1715 	cp	a,e
   09E9 30 21         [12] 1716 	jr	NC,00218$
   09EB DD 96 F1      [19] 1717 	sub	a, -15 (ix)
   09EE 30 1C         [12] 1718 	jr	NC,00218$
                           1719 ;puzzmem.c:232: put_pixel1(offset_x+x,offset_y+y,2);
   09F0 DD 7E 04      [19] 1720 	ld	a,4 (ix)
   09F3 83            [ 4] 1721 	add	a, e
   09F4 47            [ 4] 1722 	ld	b,a
   09F5 C5            [11] 1723 	push	bc
   09F6 D5            [11] 1724 	push	de
   09F7 3E 02         [ 7] 1725 	ld	a,#0x02
   09F9 F5            [11] 1726 	push	af
   09FA 33            [ 6] 1727 	inc	sp
   09FB DD 7E FC      [19] 1728 	ld	a,-4 (ix)
   09FE F5            [11] 1729 	push	af
   09FF 33            [ 6] 1730 	inc	sp
   0A00 C5            [11] 1731 	push	bc
   0A01 33            [ 6] 1732 	inc	sp
   0A02 CDr00r00      [17] 1733 	call	_put_pixel1
   0A05 F1            [10] 1734 	pop	af
   0A06 33            [ 6] 1735 	inc	sp
   0A07 D1            [10] 1736 	pop	de
   0A08 C1            [10] 1737 	pop	bc
   0A09 C3rAEr0A      [10] 1738 	jp	00400$
   0A0C                    1739 00218$:
                           1740 ;puzzmem.c:233: } else if (y>tailleTile/2) {
   0A0C DD 7E FE      [19] 1741 	ld	a,-2 (ix)
   0A0F B7            [ 4] 1742 	or	a, a
   0A10 28 1C         [12] 1743 	jr	Z,00215$
                           1744 ;puzzmem.c:234: put_pixel1(offset_x+x,offset_y+y,3);
   0A12 DD 7E 04      [19] 1745 	ld	a,4 (ix)
   0A15 83            [ 4] 1746 	add	a, e
   0A16 47            [ 4] 1747 	ld	b,a
   0A17 C5            [11] 1748 	push	bc
   0A18 D5            [11] 1749 	push	de
   0A19 3E 03         [ 7] 1750 	ld	a,#0x03
   0A1B F5            [11] 1751 	push	af
   0A1C 33            [ 6] 1752 	inc	sp
   0A1D DD 7E FA      [19] 1753 	ld	a,-6 (ix)
   0A20 F5            [11] 1754 	push	af
   0A21 33            [ 6] 1755 	inc	sp
   0A22 C5            [11] 1756 	push	bc
   0A23 33            [ 6] 1757 	inc	sp
   0A24 CDr00r00      [17] 1758 	call	_put_pixel1
   0A27 F1            [10] 1759 	pop	af
   0A28 33            [ 6] 1760 	inc	sp
   0A29 D1            [10] 1761 	pop	de
   0A2A C1            [10] 1762 	pop	bc
   0A2B C3rAEr0A      [10] 1763 	jp	00400$
   0A2E                    1764 00215$:
                           1765 ;puzzmem.c:236: if (x<tailleTile-4 && x%4==(4-mod4)%4) {
   0A2E DD 7E 07      [19] 1766 	ld	a, 7 (ix)
   0A31 16 00         [ 7] 1767 	ld	d, #0x00
   0A33 C6 FC         [ 7] 1768 	add	a,#0xfc
   0A35 47            [ 4] 1769 	ld	b,a
   0A36 7A            [ 4] 1770 	ld	a,d
   0A37 CE FF         [ 7] 1771 	adc	a,#0xff
   0A39 57            [ 4] 1772 	ld	d,a
   0A3A 6B            [ 4] 1773 	ld	l,e
   0A3B 26 00         [ 7] 1774 	ld	h,#0x00
   0A3D 7D            [ 4] 1775 	ld	a,l
   0A3E 90            [ 4] 1776 	sub	a, b
   0A3F 7C            [ 4] 1777 	ld	a,h
   0A40 9A            [ 4] 1778 	sbc	a, d
   0A41 E2r46r0A      [10] 1779 	jp	PO, 01167$
   0A44 EE 80         [ 7] 1780 	xor	a, #0x80
   0A46                    1781 01167$:
   0A46 F2r95r0A      [10] 1782 	jp	P,00211$
   0A49 7B            [ 4] 1783 	ld	a,e
   0A4A E6 03         [ 7] 1784 	and	a, #0x03
   0A4C DD 77 FF      [19] 1785 	ld	-1 (ix),a
   0A4F DD 56 F0      [19] 1786 	ld	d,-16 (ix)
   0A52 06 00         [ 7] 1787 	ld	b,#0x00
   0A54 3E 04         [ 7] 1788 	ld	a,#0x04
   0A56 92            [ 4] 1789 	sub	a, d
   0A57 57            [ 4] 1790 	ld	d,a
   0A58 3E 00         [ 7] 1791 	ld	a,#0x00
   0A5A 98            [ 4] 1792 	sbc	a, b
   0A5B 47            [ 4] 1793 	ld	b,a
   0A5C C5            [11] 1794 	push	bc
   0A5D D5            [11] 1795 	push	de
   0A5E 21 04 00      [10] 1796 	ld	hl,#0x0004
   0A61 E5            [11] 1797 	push	hl
   0A62 4A            [ 4] 1798 	ld	c,d
   0A63 C5            [11] 1799 	push	bc
   0A64 CDr00r00      [17] 1800 	call	__modsint
   0A67 F1            [10] 1801 	pop	af
   0A68 F1            [10] 1802 	pop	af
   0A69 D1            [10] 1803 	pop	de
   0A6A C1            [10] 1804 	pop	bc
   0A6B DD 7E FF      [19] 1805 	ld	a, -1 (ix)
   0A6E 16 00         [ 7] 1806 	ld	d, #0x00
   0A70 95            [ 4] 1807 	sub	a, l
   0A71 20 22         [12] 1808 	jr	NZ,00211$
   0A73 7A            [ 4] 1809 	ld	a,d
   0A74 94            [ 4] 1810 	sub	a, h
   0A75 20 1E         [12] 1811 	jr	NZ,00211$
                           1812 ;puzzmem.c:237: put_pixel_byte1(offset_x+x,offset_y+y,3);
   0A77 DD 7E 04      [19] 1813 	ld	a,4 (ix)
   0A7A 83            [ 4] 1814 	add	a, e
   0A7B 47            [ 4] 1815 	ld	b,a
   0A7C C5            [11] 1816 	push	bc
   0A7D D5            [11] 1817 	push	de
   0A7E 3E 03         [ 7] 1818 	ld	a,#0x03
   0A80 F5            [11] 1819 	push	af
   0A81 33            [ 6] 1820 	inc	sp
   0A82 DD 7E F8      [19] 1821 	ld	a,-8 (ix)
   0A85 F5            [11] 1822 	push	af
   0A86 33            [ 6] 1823 	inc	sp
   0A87 C5            [11] 1824 	push	bc
   0A88 33            [ 6] 1825 	inc	sp
   0A89 CDr00r00      [17] 1826 	call	_put_pixel_byte1
   0A8C F1            [10] 1827 	pop	af
   0A8D 33            [ 6] 1828 	inc	sp
   0A8E D1            [10] 1829 	pop	de
   0A8F C1            [10] 1830 	pop	bc
                           1831 ;puzzmem.c:238: x+=3; // x+=4;
   0A90 1C            [ 4] 1832 	inc	e
   0A91 1C            [ 4] 1833 	inc	e
   0A92 1C            [ 4] 1834 	inc	e
   0A93 18 19         [12] 1835 	jr	00400$
   0A95                    1836 00211$:
                           1837 ;puzzmem.c:240: put_pixel1(offset_x+x,offset_y+y,3);
   0A95 DD 7E 04      [19] 1838 	ld	a,4 (ix)
   0A98 83            [ 4] 1839 	add	a, e
   0A99 47            [ 4] 1840 	ld	b,a
   0A9A C5            [11] 1841 	push	bc
   0A9B D5            [11] 1842 	push	de
   0A9C 3E 03         [ 7] 1843 	ld	a,#0x03
   0A9E F5            [11] 1844 	push	af
   0A9F 33            [ 6] 1845 	inc	sp
   0AA0 DD 7E F7      [19] 1846 	ld	a,-9 (ix)
   0AA3 F5            [11] 1847 	push	af
   0AA4 33            [ 6] 1848 	inc	sp
   0AA5 C5            [11] 1849 	push	bc
   0AA6 33            [ 6] 1850 	inc	sp
   0AA7 CDr00r00      [17] 1851 	call	_put_pixel1
   0AAA F1            [10] 1852 	pop	af
   0AAB 33            [ 6] 1853 	inc	sp
   0AAC D1            [10] 1854 	pop	de
   0AAD C1            [10] 1855 	pop	bc
   0AAE                    1856 00400$:
                           1857 ;puzzmem.c:230: for (x=0;x<tailleTile;x++) {
   0AAE 1C            [ 4] 1858 	inc	e
   0AAF C3rE0r09      [10] 1859 	jp	00399$
   0AB2                    1860 00403$:
                           1861 ;puzzmem.c:229: for (y=0;y<tailleTile;y++) {
   0AB2 DD 34 F1      [23] 1862 	inc	-15 (ix)
   0AB5 C3rB3r09      [10] 1863 	jp	00402$
                           1864 ;puzzmem.c:246: case 13 :
   0AB8                    1865 00223$:
                           1866 ;puzzmem.c:248: for (y=0;y<tailleTile;y++) {
   0AB8 DD 4E 07      [19] 1867 	ld	c,7 (ix)
   0ABB CB 39         [ 8] 1868 	srl	c
   0ABD DD 36 F1 00   [19] 1869 	ld	-15 (ix),#0x00
   0AC1                    1870 00408$:
   0AC1 DD 7E F1      [19] 1871 	ld	a,-15 (ix)
   0AC4 DD 96 07      [19] 1872 	sub	a, 7 (ix)
   0AC7 D2r84r14      [10] 1873 	jp	NC,00323$
                           1874 ;puzzmem.c:249: for (x=0;x<tailleTile;x++) {
   0ACA DD 36 F2 00   [19] 1875 	ld	-14 (ix),#0x00
   0ACE 79            [ 4] 1876 	ld	a,c
   0ACF DD 96 F1      [19] 1877 	sub	a, -15 (ix)
   0AD2 3E 00         [ 7] 1878 	ld	a,#0x00
   0AD4 17            [ 4] 1879 	rla
   0AD5 57            [ 4] 1880 	ld	d,a
   0AD6 DD 7E 05      [19] 1881 	ld	a,5 (ix)
   0AD9 DD 86 F1      [19] 1882 	add	a, -15 (ix)
   0ADC DD 77 F7      [19] 1883 	ld	-9 (ix), a
   0ADF DD 77 F8      [19] 1884 	ld	-8 (ix),a
   0AE2 DD 7E F7      [19] 1885 	ld	a,-9 (ix)
   0AE5 DD 77 FA      [19] 1886 	ld	-6 (ix),a
   0AE8 DD 7E F7      [19] 1887 	ld	a,-9 (ix)
   0AEB DD 77 FC      [19] 1888 	ld	-4 (ix),a
   0AEE                    1889 00405$:
   0AEE DD 7E F2      [19] 1890 	ld	a,-14 (ix)
   0AF1 DD 96 07      [19] 1891 	sub	a, 7 (ix)
   0AF4 D2rD6r0B      [10] 1892 	jp	NC,00409$
                           1893 ;puzzmem.c:250: if (x<tailleTile/2 && y>tailleTile/2) {
   0AF7 DD 7E F2      [19] 1894 	ld	a,-14 (ix)
   0AFA 91            [ 4] 1895 	sub	a, c
   0AFB 30 24         [12] 1896 	jr	NC,00232$
   0AFD 79            [ 4] 1897 	ld	a,c
   0AFE DD 96 F1      [19] 1898 	sub	a, -15 (ix)
   0B01 30 1E         [12] 1899 	jr	NC,00232$
                           1900 ;puzzmem.c:251: put_pixel1(offset_x+x,offset_y+y,2);
   0B03 DD 7E 04      [19] 1901 	ld	a,4 (ix)
   0B06 DD 86 F2      [19] 1902 	add	a, -14 (ix)
   0B09 47            [ 4] 1903 	ld	b,a
   0B0A C5            [11] 1904 	push	bc
   0B0B D5            [11] 1905 	push	de
   0B0C 3E 02         [ 7] 1906 	ld	a,#0x02
   0B0E F5            [11] 1907 	push	af
   0B0F 33            [ 6] 1908 	inc	sp
   0B10 DD 7E FC      [19] 1909 	ld	a,-4 (ix)
   0B13 F5            [11] 1910 	push	af
   0B14 33            [ 6] 1911 	inc	sp
   0B15 C5            [11] 1912 	push	bc
   0B16 33            [ 6] 1913 	inc	sp
   0B17 CDr00r00      [17] 1914 	call	_put_pixel1
   0B1A F1            [10] 1915 	pop	af
   0B1B 33            [ 6] 1916 	inc	sp
   0B1C D1            [10] 1917 	pop	de
   0B1D C1            [10] 1918 	pop	bc
   0B1E C3rD0r0B      [10] 1919 	jp	00406$
   0B21                    1920 00232$:
                           1921 ;puzzmem.c:252: } else if (y>tailleTile/2) {
   0B21 7A            [ 4] 1922 	ld	a,d
   0B22 B7            [ 4] 1923 	or	a, a
   0B23 28 1E         [12] 1924 	jr	Z,00229$
                           1925 ;puzzmem.c:253: put_pixel1(offset_x+x,offset_y+y,3);
   0B25 DD 7E 04      [19] 1926 	ld	a,4 (ix)
   0B28 DD 86 F2      [19] 1927 	add	a, -14 (ix)
   0B2B 47            [ 4] 1928 	ld	b,a
   0B2C C5            [11] 1929 	push	bc
   0B2D D5            [11] 1930 	push	de
   0B2E 3E 03         [ 7] 1931 	ld	a,#0x03
   0B30 F5            [11] 1932 	push	af
   0B31 33            [ 6] 1933 	inc	sp
   0B32 DD 7E FA      [19] 1934 	ld	a,-6 (ix)
   0B35 F5            [11] 1935 	push	af
   0B36 33            [ 6] 1936 	inc	sp
   0B37 C5            [11] 1937 	push	bc
   0B38 33            [ 6] 1938 	inc	sp
   0B39 CDr00r00      [17] 1939 	call	_put_pixel1
   0B3C F1            [10] 1940 	pop	af
   0B3D 33            [ 6] 1941 	inc	sp
   0B3E D1            [10] 1942 	pop	de
   0B3F C1            [10] 1943 	pop	bc
   0B40 C3rD0r0B      [10] 1944 	jp	00406$
   0B43                    1945 00229$:
                           1946 ;puzzmem.c:255: if (x<tailleTile-4 && x%4==(4-mod4)%4) {
   0B43 DD 7E 07      [19] 1947 	ld	a, 7 (ix)
   0B46 1E 00         [ 7] 1948 	ld	e, #0x00
   0B48 C6 FC         [ 7] 1949 	add	a,#0xfc
   0B4A 47            [ 4] 1950 	ld	b,a
   0B4B 7B            [ 4] 1951 	ld	a,e
   0B4C CE FF         [ 7] 1952 	adc	a,#0xff
   0B4E 5F            [ 4] 1953 	ld	e,a
   0B4F DD 7E F2      [19] 1954 	ld	a, -14 (ix)
   0B52 26 00         [ 7] 1955 	ld	h, #0x00
   0B54 90            [ 4] 1956 	sub	a, b
   0B55 7C            [ 4] 1957 	ld	a,h
   0B56 9B            [ 4] 1958 	sbc	a, e
   0B57 E2r5Cr0B      [10] 1959 	jp	PO, 01170$
   0B5A EE 80         [ 7] 1960 	xor	a, #0x80
   0B5C                    1961 01170$:
   0B5C F2rB5r0B      [10] 1962 	jp	P,00225$
   0B5F DD 7E F2      [19] 1963 	ld	a,-14 (ix)
   0B62 E6 03         [ 7] 1964 	and	a, #0x03
   0B64 DD 77 FE      [19] 1965 	ld	-2 (ix),a
   0B67 DD 5E F0      [19] 1966 	ld	e,-16 (ix)
   0B6A 06 00         [ 7] 1967 	ld	b,#0x00
   0B6C 3E 04         [ 7] 1968 	ld	a,#0x04
   0B6E 93            [ 4] 1969 	sub	a, e
   0B6F 5F            [ 4] 1970 	ld	e,a
   0B70 3E 00         [ 7] 1971 	ld	a,#0x00
   0B72 98            [ 4] 1972 	sbc	a, b
   0B73 47            [ 4] 1973 	ld	b,a
   0B74 C5            [11] 1974 	push	bc
   0B75 D5            [11] 1975 	push	de
   0B76 21 04 00      [10] 1976 	ld	hl,#0x0004
   0B79 E5            [11] 1977 	push	hl
   0B7A 4B            [ 4] 1978 	ld	c,e
   0B7B C5            [11] 1979 	push	bc
   0B7C CDr00r00      [17] 1980 	call	__modsint
   0B7F F1            [10] 1981 	pop	af
   0B80 F1            [10] 1982 	pop	af
   0B81 D1            [10] 1983 	pop	de
   0B82 C1            [10] 1984 	pop	bc
   0B83 DD 7E FE      [19] 1985 	ld	a, -2 (ix)
   0B86 1E 00         [ 7] 1986 	ld	e, #0x00
   0B88 95            [ 4] 1987 	sub	a, l
   0B89 20 2A         [12] 1988 	jr	NZ,00225$
   0B8B 7B            [ 4] 1989 	ld	a,e
   0B8C 94            [ 4] 1990 	sub	a, h
   0B8D 20 26         [12] 1991 	jr	NZ,00225$
                           1992 ;puzzmem.c:256: put_pixel_byte1(offset_x+x,offset_y+y,3);
   0B8F DD 7E 04      [19] 1993 	ld	a,4 (ix)
   0B92 DD 86 F2      [19] 1994 	add	a, -14 (ix)
   0B95 47            [ 4] 1995 	ld	b,a
   0B96 C5            [11] 1996 	push	bc
   0B97 D5            [11] 1997 	push	de
   0B98 3E 03         [ 7] 1998 	ld	a,#0x03
   0B9A F5            [11] 1999 	push	af
   0B9B 33            [ 6] 2000 	inc	sp
   0B9C DD 7E F8      [19] 2001 	ld	a,-8 (ix)
   0B9F F5            [11] 2002 	push	af
   0BA0 33            [ 6] 2003 	inc	sp
   0BA1 C5            [11] 2004 	push	bc
   0BA2 33            [ 6] 2005 	inc	sp
   0BA3 CDr00r00      [17] 2006 	call	_put_pixel_byte1
   0BA6 F1            [10] 2007 	pop	af
   0BA7 33            [ 6] 2008 	inc	sp
   0BA8 D1            [10] 2009 	pop	de
   0BA9 C1            [10] 2010 	pop	bc
                           2011 ;puzzmem.c:257: x+=3; // x+=4;
   0BAA DD 34 F2      [23] 2012 	inc	-14 (ix)
   0BAD DD 34 F2      [23] 2013 	inc	-14 (ix)
   0BB0 DD 34 F2      [23] 2014 	inc	-14 (ix)
   0BB3 18 1B         [12] 2015 	jr	00406$
   0BB5                    2016 00225$:
                           2017 ;puzzmem.c:259: put_pixel1(offset_x+x,offset_y+y,3);
   0BB5 DD 7E 04      [19] 2018 	ld	a,4 (ix)
   0BB8 DD 86 F2      [19] 2019 	add	a, -14 (ix)
   0BBB 47            [ 4] 2020 	ld	b,a
   0BBC C5            [11] 2021 	push	bc
   0BBD D5            [11] 2022 	push	de
   0BBE 3E 03         [ 7] 2023 	ld	a,#0x03
   0BC0 F5            [11] 2024 	push	af
   0BC1 33            [ 6] 2025 	inc	sp
   0BC2 DD 7E F7      [19] 2026 	ld	a,-9 (ix)
   0BC5 F5            [11] 2027 	push	af
   0BC6 33            [ 6] 2028 	inc	sp
   0BC7 C5            [11] 2029 	push	bc
   0BC8 33            [ 6] 2030 	inc	sp
   0BC9 CDr00r00      [17] 2031 	call	_put_pixel1
   0BCC F1            [10] 2032 	pop	af
   0BCD 33            [ 6] 2033 	inc	sp
   0BCE D1            [10] 2034 	pop	de
   0BCF C1            [10] 2035 	pop	bc
   0BD0                    2036 00406$:
                           2037 ;puzzmem.c:249: for (x=0;x<tailleTile;x++) {
   0BD0 DD 34 F2      [23] 2038 	inc	-14 (ix)
   0BD3 C3rEEr0A      [10] 2039 	jp	00405$
   0BD6                    2040 00409$:
                           2041 ;puzzmem.c:248: for (y=0;y<tailleTile;y++) {
   0BD6 DD 34 F1      [23] 2042 	inc	-15 (ix)
   0BD9 C3rC1r0A      [10] 2043 	jp	00408$
                           2044 ;puzzmem.c:265: case 14 :
   0BDC                    2045 00237$:
                           2046 ;puzzmem.c:267: for (y=0;y<tailleTile;y++) {
   0BDC DD 4E 07      [19] 2047 	ld	c,7 (ix)
   0BDF CB 39         [ 8] 2048 	srl	c
   0BE1 DD 36 F1 00   [19] 2049 	ld	-15 (ix),#0x00
   0BE5                    2050 00414$:
   0BE5 DD 7E F1      [19] 2051 	ld	a,-15 (ix)
   0BE8 DD 96 07      [19] 2052 	sub	a, 7 (ix)
   0BEB D2r84r14      [10] 2053 	jp	NC,00323$
                           2054 ;puzzmem.c:268: for (x=0;x<tailleTile;x++) {
   0BEE 1E 00         [ 7] 2055 	ld	e,#0x00
   0BF0 79            [ 4] 2056 	ld	a,c
   0BF1 DD 96 F1      [19] 2057 	sub	a, -15 (ix)
   0BF4 3E 00         [ 7] 2058 	ld	a,#0x00
   0BF6 17            [ 4] 2059 	rla
   0BF7 DD 77 FE      [19] 2060 	ld	-2 (ix),a
   0BFA DD 7E 05      [19] 2061 	ld	a,5 (ix)
   0BFD DD 86 F1      [19] 2062 	add	a, -15 (ix)
   0C00 DD 77 F7      [19] 2063 	ld	-9 (ix), a
   0C03 DD 77 F8      [19] 2064 	ld	-8 (ix),a
   0C06 DD 7E F7      [19] 2065 	ld	a,-9 (ix)
   0C09 DD 77 FA      [19] 2066 	ld	-6 (ix),a
   0C0C DD 7E F7      [19] 2067 	ld	a,-9 (ix)
   0C0F DD 77 FC      [19] 2068 	ld	-4 (ix),a
   0C12                    2069 00411$:
   0C12 7B            [ 4] 2070 	ld	a,e
   0C13 DD 96 07      [19] 2071 	sub	a, 7 (ix)
   0C16 D2rE5r0C      [10] 2072 	jp	NC,00415$
                           2073 ;puzzmem.c:269: if (x<tailleTile/2 && y<=tailleTile/2) {
   0C19 7B            [ 4] 2074 	ld	a,e
   0C1A 91            [ 4] 2075 	sub	a, c
   0C1B 30 22         [12] 2076 	jr	NC,00246$
   0C1D 79            [ 4] 2077 	ld	a,c
   0C1E DD 96 F1      [19] 2078 	sub	a, -15 (ix)
   0C21 38 1C         [12] 2079 	jr	C,00246$
                           2080 ;puzzmem.c:270: put_pixel1(offset_x+x,offset_y+y,3);
   0C23 DD 7E 04      [19] 2081 	ld	a,4 (ix)
   0C26 83            [ 4] 2082 	add	a, e
   0C27 47            [ 4] 2083 	ld	b,a
   0C28 C5            [11] 2084 	push	bc
   0C29 D5            [11] 2085 	push	de
   0C2A 3E 03         [ 7] 2086 	ld	a,#0x03
   0C2C F5            [11] 2087 	push	af
   0C2D 33            [ 6] 2088 	inc	sp
   0C2E DD 7E FC      [19] 2089 	ld	a,-4 (ix)
   0C31 F5            [11] 2090 	push	af
   0C32 33            [ 6] 2091 	inc	sp
   0C33 C5            [11] 2092 	push	bc
   0C34 33            [ 6] 2093 	inc	sp
   0C35 CDr00r00      [17] 2094 	call	_put_pixel1
   0C38 F1            [10] 2095 	pop	af
   0C39 33            [ 6] 2096 	inc	sp
   0C3A D1            [10] 2097 	pop	de
   0C3B C1            [10] 2098 	pop	bc
   0C3C C3rE1r0C      [10] 2099 	jp	00412$
   0C3F                    2100 00246$:
                           2101 ;puzzmem.c:271: } else if (y<=tailleTile/2) {
   0C3F DD CB FE 46   [20] 2102 	bit	0,-2 (ix)
   0C43 20 1C         [12] 2103 	jr	NZ,00243$
                           2104 ;puzzmem.c:272: put_pixel1(offset_x+x,offset_y+y,2);
   0C45 DD 7E 04      [19] 2105 	ld	a,4 (ix)
   0C48 83            [ 4] 2106 	add	a, e
   0C49 47            [ 4] 2107 	ld	b,a
   0C4A C5            [11] 2108 	push	bc
   0C4B D5            [11] 2109 	push	de
   0C4C 3E 02         [ 7] 2110 	ld	a,#0x02
   0C4E F5            [11] 2111 	push	af
   0C4F 33            [ 6] 2112 	inc	sp
   0C50 DD 7E FA      [19] 2113 	ld	a,-6 (ix)
   0C53 F5            [11] 2114 	push	af
   0C54 33            [ 6] 2115 	inc	sp
   0C55 C5            [11] 2116 	push	bc
   0C56 33            [ 6] 2117 	inc	sp
   0C57 CDr00r00      [17] 2118 	call	_put_pixel1
   0C5A F1            [10] 2119 	pop	af
   0C5B 33            [ 6] 2120 	inc	sp
   0C5C D1            [10] 2121 	pop	de
   0C5D C1            [10] 2122 	pop	bc
   0C5E C3rE1r0C      [10] 2123 	jp	00412$
   0C61                    2124 00243$:
                           2125 ;puzzmem.c:274: if (x<tailleTile-4 && x%4==(4-mod4)%4) {
   0C61 DD 7E 07      [19] 2126 	ld	a, 7 (ix)
   0C64 16 00         [ 7] 2127 	ld	d, #0x00
   0C66 C6 FC         [ 7] 2128 	add	a,#0xfc
   0C68 47            [ 4] 2129 	ld	b,a
   0C69 7A            [ 4] 2130 	ld	a,d
   0C6A CE FF         [ 7] 2131 	adc	a,#0xff
   0C6C 57            [ 4] 2132 	ld	d,a
   0C6D 6B            [ 4] 2133 	ld	l,e
   0C6E 26 00         [ 7] 2134 	ld	h,#0x00
   0C70 7D            [ 4] 2135 	ld	a,l
   0C71 90            [ 4] 2136 	sub	a, b
   0C72 7C            [ 4] 2137 	ld	a,h
   0C73 9A            [ 4] 2138 	sbc	a, d
   0C74 E2r79r0C      [10] 2139 	jp	PO, 01173$
   0C77 EE 80         [ 7] 2140 	xor	a, #0x80
   0C79                    2141 01173$:
   0C79 F2rC8r0C      [10] 2142 	jp	P,00239$
   0C7C 7B            [ 4] 2143 	ld	a,e
   0C7D E6 03         [ 7] 2144 	and	a, #0x03
   0C7F DD 77 FF      [19] 2145 	ld	-1 (ix),a
   0C82 DD 56 F0      [19] 2146 	ld	d,-16 (ix)
   0C85 06 00         [ 7] 2147 	ld	b,#0x00
   0C87 3E 04         [ 7] 2148 	ld	a,#0x04
   0C89 92            [ 4] 2149 	sub	a, d
   0C8A 57            [ 4] 2150 	ld	d,a
   0C8B 3E 00         [ 7] 2151 	ld	a,#0x00
   0C8D 98            [ 4] 2152 	sbc	a, b
   0C8E 47            [ 4] 2153 	ld	b,a
   0C8F C5            [11] 2154 	push	bc
   0C90 D5            [11] 2155 	push	de
   0C91 21 04 00      [10] 2156 	ld	hl,#0x0004
   0C94 E5            [11] 2157 	push	hl
   0C95 4A            [ 4] 2158 	ld	c,d
   0C96 C5            [11] 2159 	push	bc
   0C97 CDr00r00      [17] 2160 	call	__modsint
   0C9A F1            [10] 2161 	pop	af
   0C9B F1            [10] 2162 	pop	af
   0C9C D1            [10] 2163 	pop	de
   0C9D C1            [10] 2164 	pop	bc
   0C9E DD 7E FF      [19] 2165 	ld	a, -1 (ix)
   0CA1 16 00         [ 7] 2166 	ld	d, #0x00
   0CA3 95            [ 4] 2167 	sub	a, l
   0CA4 20 22         [12] 2168 	jr	NZ,00239$
   0CA6 7A            [ 4] 2169 	ld	a,d
   0CA7 94            [ 4] 2170 	sub	a, h
   0CA8 20 1E         [12] 2171 	jr	NZ,00239$
                           2172 ;puzzmem.c:275: put_pixel_byte1(offset_x+x,offset_y+y,2);
   0CAA DD 7E 04      [19] 2173 	ld	a,4 (ix)
   0CAD 83            [ 4] 2174 	add	a, e
   0CAE 47            [ 4] 2175 	ld	b,a
   0CAF C5            [11] 2176 	push	bc
   0CB0 D5            [11] 2177 	push	de
   0CB1 3E 02         [ 7] 2178 	ld	a,#0x02
   0CB3 F5            [11] 2179 	push	af
   0CB4 33            [ 6] 2180 	inc	sp
   0CB5 DD 7E F8      [19] 2181 	ld	a,-8 (ix)
   0CB8 F5            [11] 2182 	push	af
   0CB9 33            [ 6] 2183 	inc	sp
   0CBA C5            [11] 2184 	push	bc
   0CBB 33            [ 6] 2185 	inc	sp
   0CBC CDr00r00      [17] 2186 	call	_put_pixel_byte1
   0CBF F1            [10] 2187 	pop	af
   0CC0 33            [ 6] 2188 	inc	sp
   0CC1 D1            [10] 2189 	pop	de
   0CC2 C1            [10] 2190 	pop	bc
                           2191 ;puzzmem.c:276: x+=3; // x+=4;
   0CC3 1C            [ 4] 2192 	inc	e
   0CC4 1C            [ 4] 2193 	inc	e
   0CC5 1C            [ 4] 2194 	inc	e
   0CC6 18 19         [12] 2195 	jr	00412$
   0CC8                    2196 00239$:
                           2197 ;puzzmem.c:278: put_pixel1(offset_x+x,offset_y+y,2);
   0CC8 DD 7E 04      [19] 2198 	ld	a,4 (ix)
   0CCB 83            [ 4] 2199 	add	a, e
   0CCC 47            [ 4] 2200 	ld	b,a
   0CCD C5            [11] 2201 	push	bc
   0CCE D5            [11] 2202 	push	de
   0CCF 3E 02         [ 7] 2203 	ld	a,#0x02
   0CD1 F5            [11] 2204 	push	af
   0CD2 33            [ 6] 2205 	inc	sp
   0CD3 DD 7E F7      [19] 2206 	ld	a,-9 (ix)
   0CD6 F5            [11] 2207 	push	af
   0CD7 33            [ 6] 2208 	inc	sp
   0CD8 C5            [11] 2209 	push	bc
   0CD9 33            [ 6] 2210 	inc	sp
   0CDA CDr00r00      [17] 2211 	call	_put_pixel1
   0CDD F1            [10] 2212 	pop	af
   0CDE 33            [ 6] 2213 	inc	sp
   0CDF D1            [10] 2214 	pop	de
   0CE0 C1            [10] 2215 	pop	bc
   0CE1                    2216 00412$:
                           2217 ;puzzmem.c:268: for (x=0;x<tailleTile;x++) {
   0CE1 1C            [ 4] 2218 	inc	e
   0CE2 C3r12r0C      [10] 2219 	jp	00411$
   0CE5                    2220 00415$:
                           2221 ;puzzmem.c:267: for (y=0;y<tailleTile;y++) {
   0CE5 DD 34 F1      [23] 2222 	inc	-15 (ix)
   0CE8 C3rE5r0B      [10] 2223 	jp	00414$
                           2224 ;puzzmem.c:285: case 15 :
   0CEB                    2225 00251$:
                           2226 ;puzzmem.c:287: for (y=0;y<tailleTile;y++) {
   0CEB DD 4E 07      [19] 2227 	ld	c,7 (ix)
   0CEE CB 39         [ 8] 2228 	srl	c
   0CF0 DD 36 F1 00   [19] 2229 	ld	-15 (ix),#0x00
   0CF4                    2230 00420$:
   0CF4 DD 7E F1      [19] 2231 	ld	a,-15 (ix)
   0CF7 DD 96 07      [19] 2232 	sub	a, 7 (ix)
   0CFA D2r84r14      [10] 2233 	jp	NC,00323$
                           2234 ;puzzmem.c:288: for (x=0;x<tailleTile;x++) {
   0CFD 1E 00         [ 7] 2235 	ld	e,#0x00
   0CFF 79            [ 4] 2236 	ld	a,c
   0D00 DD 96 F1      [19] 2237 	sub	a, -15 (ix)
   0D03 3E 00         [ 7] 2238 	ld	a,#0x00
   0D05 17            [ 4] 2239 	rla
   0D06 DD 77 FE      [19] 2240 	ld	-2 (ix),a
   0D09 DD 7E 05      [19] 2241 	ld	a,5 (ix)
   0D0C DD 86 F1      [19] 2242 	add	a, -15 (ix)
   0D0F DD 77 F7      [19] 2243 	ld	-9 (ix), a
   0D12 DD 77 F8      [19] 2244 	ld	-8 (ix),a
   0D15 DD 7E F7      [19] 2245 	ld	a,-9 (ix)
   0D18 DD 77 FA      [19] 2246 	ld	-6 (ix),a
   0D1B DD 7E F7      [19] 2247 	ld	a,-9 (ix)
   0D1E DD 77 FC      [19] 2248 	ld	-4 (ix),a
   0D21                    2249 00417$:
   0D21 7B            [ 4] 2250 	ld	a,e
   0D22 DD 96 07      [19] 2251 	sub	a, 7 (ix)
   0D25 D2rF3r0D      [10] 2252 	jp	NC,00421$
                           2253 ;puzzmem.c:289: if (x>tailleTile/2 && y<=tailleTile/2) {
   0D28 79            [ 4] 2254 	ld	a,c
   0D29 BB            [ 4] 2255 	cp	a,e
   0D2A 30 21         [12] 2256 	jr	NC,00260$
   0D2C DD 96 F1      [19] 2257 	sub	a, -15 (ix)
   0D2F 38 1C         [12] 2258 	jr	C,00260$
                           2259 ;puzzmem.c:290: put_pixel1(offset_x+x,offset_y+y,3);
   0D31 DD 7E 04      [19] 2260 	ld	a,4 (ix)
   0D34 83            [ 4] 2261 	add	a, e
   0D35 47            [ 4] 2262 	ld	b,a
   0D36 C5            [11] 2263 	push	bc
   0D37 D5            [11] 2264 	push	de
   0D38 3E 03         [ 7] 2265 	ld	a,#0x03
   0D3A F5            [11] 2266 	push	af
   0D3B 33            [ 6] 2267 	inc	sp
   0D3C DD 7E FC      [19] 2268 	ld	a,-4 (ix)
   0D3F F5            [11] 2269 	push	af
   0D40 33            [ 6] 2270 	inc	sp
   0D41 C5            [11] 2271 	push	bc
   0D42 33            [ 6] 2272 	inc	sp
   0D43 CDr00r00      [17] 2273 	call	_put_pixel1
   0D46 F1            [10] 2274 	pop	af
   0D47 33            [ 6] 2275 	inc	sp
   0D48 D1            [10] 2276 	pop	de
   0D49 C1            [10] 2277 	pop	bc
   0D4A C3rEFr0D      [10] 2278 	jp	00418$
   0D4D                    2279 00260$:
                           2280 ;puzzmem.c:291: } else if (y<=tailleTile/2) {
   0D4D DD CB FE 46   [20] 2281 	bit	0,-2 (ix)
   0D51 20 1C         [12] 2282 	jr	NZ,00257$
                           2283 ;puzzmem.c:292: put_pixel1(offset_x+x,offset_y+y,2);
   0D53 DD 7E 04      [19] 2284 	ld	a,4 (ix)
   0D56 83            [ 4] 2285 	add	a, e
   0D57 47            [ 4] 2286 	ld	b,a
   0D58 C5            [11] 2287 	push	bc
   0D59 D5            [11] 2288 	push	de
   0D5A 3E 02         [ 7] 2289 	ld	a,#0x02
   0D5C F5            [11] 2290 	push	af
   0D5D 33            [ 6] 2291 	inc	sp
   0D5E DD 7E FA      [19] 2292 	ld	a,-6 (ix)
   0D61 F5            [11] 2293 	push	af
   0D62 33            [ 6] 2294 	inc	sp
   0D63 C5            [11] 2295 	push	bc
   0D64 33            [ 6] 2296 	inc	sp
   0D65 CDr00r00      [17] 2297 	call	_put_pixel1
   0D68 F1            [10] 2298 	pop	af
   0D69 33            [ 6] 2299 	inc	sp
   0D6A D1            [10] 2300 	pop	de
   0D6B C1            [10] 2301 	pop	bc
   0D6C C3rEFr0D      [10] 2302 	jp	00418$
   0D6F                    2303 00257$:
                           2304 ;puzzmem.c:294: if (x<tailleTile-4 && x%4==(4-mod4)%4) {
   0D6F DD 7E 07      [19] 2305 	ld	a, 7 (ix)
   0D72 16 00         [ 7] 2306 	ld	d, #0x00
   0D74 C6 FC         [ 7] 2307 	add	a,#0xfc
   0D76 47            [ 4] 2308 	ld	b,a
   0D77 7A            [ 4] 2309 	ld	a,d
   0D78 CE FF         [ 7] 2310 	adc	a,#0xff
   0D7A 57            [ 4] 2311 	ld	d,a
   0D7B 6B            [ 4] 2312 	ld	l,e
   0D7C 26 00         [ 7] 2313 	ld	h,#0x00
   0D7E 7D            [ 4] 2314 	ld	a,l
   0D7F 90            [ 4] 2315 	sub	a, b
   0D80 7C            [ 4] 2316 	ld	a,h
   0D81 9A            [ 4] 2317 	sbc	a, d
   0D82 E2r87r0D      [10] 2318 	jp	PO, 01176$
   0D85 EE 80         [ 7] 2319 	xor	a, #0x80
   0D87                    2320 01176$:
   0D87 F2rD6r0D      [10] 2321 	jp	P,00253$
   0D8A 7B            [ 4] 2322 	ld	a,e
   0D8B E6 03         [ 7] 2323 	and	a, #0x03
   0D8D DD 77 FF      [19] 2324 	ld	-1 (ix),a
   0D90 DD 56 F0      [19] 2325 	ld	d,-16 (ix)
   0D93 06 00         [ 7] 2326 	ld	b,#0x00
   0D95 3E 04         [ 7] 2327 	ld	a,#0x04
   0D97 92            [ 4] 2328 	sub	a, d
   0D98 57            [ 4] 2329 	ld	d,a
   0D99 3E 00         [ 7] 2330 	ld	a,#0x00
   0D9B 98            [ 4] 2331 	sbc	a, b
   0D9C 47            [ 4] 2332 	ld	b,a
   0D9D C5            [11] 2333 	push	bc
   0D9E D5            [11] 2334 	push	de
   0D9F 21 04 00      [10] 2335 	ld	hl,#0x0004
   0DA2 E5            [11] 2336 	push	hl
   0DA3 4A            [ 4] 2337 	ld	c,d
   0DA4 C5            [11] 2338 	push	bc
   0DA5 CDr00r00      [17] 2339 	call	__modsint
   0DA8 F1            [10] 2340 	pop	af
   0DA9 F1            [10] 2341 	pop	af
   0DAA D1            [10] 2342 	pop	de
   0DAB C1            [10] 2343 	pop	bc
   0DAC DD 7E FF      [19] 2344 	ld	a, -1 (ix)
   0DAF 16 00         [ 7] 2345 	ld	d, #0x00
   0DB1 95            [ 4] 2346 	sub	a, l
   0DB2 20 22         [12] 2347 	jr	NZ,00253$
   0DB4 7A            [ 4] 2348 	ld	a,d
   0DB5 94            [ 4] 2349 	sub	a, h
   0DB6 20 1E         [12] 2350 	jr	NZ,00253$
                           2351 ;puzzmem.c:295: put_pixel_byte1(offset_x+x,offset_y+y,2);
   0DB8 DD 7E 04      [19] 2352 	ld	a,4 (ix)
   0DBB 83            [ 4] 2353 	add	a, e
   0DBC 47            [ 4] 2354 	ld	b,a
   0DBD C5            [11] 2355 	push	bc
   0DBE D5            [11] 2356 	push	de
   0DBF 3E 02         [ 7] 2357 	ld	a,#0x02
   0DC1 F5            [11] 2358 	push	af
   0DC2 33            [ 6] 2359 	inc	sp
   0DC3 DD 7E F8      [19] 2360 	ld	a,-8 (ix)
   0DC6 F5            [11] 2361 	push	af
   0DC7 33            [ 6] 2362 	inc	sp
   0DC8 C5            [11] 2363 	push	bc
   0DC9 33            [ 6] 2364 	inc	sp
   0DCA CDr00r00      [17] 2365 	call	_put_pixel_byte1
   0DCD F1            [10] 2366 	pop	af
   0DCE 33            [ 6] 2367 	inc	sp
   0DCF D1            [10] 2368 	pop	de
   0DD0 C1            [10] 2369 	pop	bc
                           2370 ;puzzmem.c:296: x+=3; // x+=4;
   0DD1 1C            [ 4] 2371 	inc	e
   0DD2 1C            [ 4] 2372 	inc	e
   0DD3 1C            [ 4] 2373 	inc	e
   0DD4 18 19         [12] 2374 	jr	00418$
   0DD6                    2375 00253$:
                           2376 ;puzzmem.c:298: put_pixel1(offset_x+x,offset_y+y,2);
   0DD6 DD 7E 04      [19] 2377 	ld	a,4 (ix)
   0DD9 83            [ 4] 2378 	add	a, e
   0DDA 47            [ 4] 2379 	ld	b,a
   0DDB C5            [11] 2380 	push	bc
   0DDC D5            [11] 2381 	push	de
   0DDD 3E 02         [ 7] 2382 	ld	a,#0x02
   0DDF F5            [11] 2383 	push	af
   0DE0 33            [ 6] 2384 	inc	sp
   0DE1 DD 7E F7      [19] 2385 	ld	a,-9 (ix)
   0DE4 F5            [11] 2386 	push	af
   0DE5 33            [ 6] 2387 	inc	sp
   0DE6 C5            [11] 2388 	push	bc
   0DE7 33            [ 6] 2389 	inc	sp
   0DE8 CDr00r00      [17] 2390 	call	_put_pixel1
   0DEB F1            [10] 2391 	pop	af
   0DEC 33            [ 6] 2392 	inc	sp
   0DED D1            [10] 2393 	pop	de
   0DEE C1            [10] 2394 	pop	bc
   0DEF                    2395 00418$:
                           2396 ;puzzmem.c:288: for (x=0;x<tailleTile;x++) {
   0DEF 1C            [ 4] 2397 	inc	e
   0DF0 C3r21r0D      [10] 2398 	jp	00417$
   0DF3                    2399 00421$:
                           2400 ;puzzmem.c:287: for (y=0;y<tailleTile;y++) {
   0DF3 DD 34 F1      [23] 2401 	inc	-15 (ix)
   0DF6 C3rF4r0C      [10] 2402 	jp	00420$
                           2403 ;puzzmem.c:304: case 16 :
   0DF9                    2404 00265$:
                           2405 ;puzzmem.c:306: for (y=0;y<tailleTile;y++) {
   0DF9 DD 4E 07      [19] 2406 	ld	c,7 (ix)
   0DFC CB 39         [ 8] 2407 	srl	c
   0DFE DD 36 F1 00   [19] 2408 	ld	-15 (ix),#0x00
   0E02                    2409 00426$:
   0E02 DD 7E F1      [19] 2410 	ld	a,-15 (ix)
   0E05 DD 96 07      [19] 2411 	sub	a, 7 (ix)
   0E08 D2r84r14      [10] 2412 	jp	NC,00323$
                           2413 ;puzzmem.c:307: for (x=0;x<tailleTile;x++) {
   0E0B 1E 00         [ 7] 2414 	ld	e,#0x00
   0E0D DD 7E F1      [19] 2415 	ld	a,-15 (ix)
   0E10 91            [ 4] 2416 	sub	a, c
   0E11 3E 00         [ 7] 2417 	ld	a,#0x00
   0E13 17            [ 4] 2418 	rla
   0E14 DD 77 FE      [19] 2419 	ld	-2 (ix),a
   0E17 DD 7E 05      [19] 2420 	ld	a,5 (ix)
   0E1A DD 86 F1      [19] 2421 	add	a, -15 (ix)
   0E1D DD 77 F7      [19] 2422 	ld	-9 (ix), a
   0E20 DD 77 F8      [19] 2423 	ld	-8 (ix),a
   0E23 DD 7E F7      [19] 2424 	ld	a,-9 (ix)
   0E26 DD 77 FA      [19] 2425 	ld	-6 (ix),a
   0E29 DD 7E F7      [19] 2426 	ld	a,-9 (ix)
   0E2C DD 77 FC      [19] 2427 	ld	-4 (ix),a
   0E2F                    2428 00423$:
   0E2F 7B            [ 4] 2429 	ld	a,e
   0E30 DD 96 07      [19] 2430 	sub	a, 7 (ix)
   0E33 D2r02r0F      [10] 2431 	jp	NC,00427$
                           2432 ;puzzmem.c:308: if (x>tailleTile/2 && y>=tailleTile/2) {
   0E36 79            [ 4] 2433 	ld	a,c
   0E37 93            [ 4] 2434 	sub	a, e
   0E38 30 22         [12] 2435 	jr	NC,00274$
   0E3A DD 7E F1      [19] 2436 	ld	a,-15 (ix)
   0E3D 91            [ 4] 2437 	sub	a, c
   0E3E 38 1C         [12] 2438 	jr	C,00274$
                           2439 ;puzzmem.c:309: put_pixel1(offset_x+x,offset_y+y,3);
   0E40 DD 7E 04      [19] 2440 	ld	a,4 (ix)
   0E43 83            [ 4] 2441 	add	a, e
   0E44 47            [ 4] 2442 	ld	b,a
   0E45 C5            [11] 2443 	push	bc
   0E46 D5            [11] 2444 	push	de
   0E47 3E 03         [ 7] 2445 	ld	a,#0x03
   0E49 F5            [11] 2446 	push	af
   0E4A 33            [ 6] 2447 	inc	sp
   0E4B DD 7E FC      [19] 2448 	ld	a,-4 (ix)
   0E4E F5            [11] 2449 	push	af
   0E4F 33            [ 6] 2450 	inc	sp
   0E50 C5            [11] 2451 	push	bc
   0E51 33            [ 6] 2452 	inc	sp
   0E52 CDr00r00      [17] 2453 	call	_put_pixel1
   0E55 F1            [10] 2454 	pop	af
   0E56 33            [ 6] 2455 	inc	sp
   0E57 D1            [10] 2456 	pop	de
   0E58 C1            [10] 2457 	pop	bc
   0E59 C3rFEr0E      [10] 2458 	jp	00424$
   0E5C                    2459 00274$:
                           2460 ;puzzmem.c:310: } else if (y>=tailleTile/2) {
   0E5C DD CB FE 46   [20] 2461 	bit	0,-2 (ix)
   0E60 20 1C         [12] 2462 	jr	NZ,00271$
                           2463 ;puzzmem.c:311: put_pixel1(offset_x+x,offset_y+y,2);
   0E62 DD 7E 04      [19] 2464 	ld	a,4 (ix)
   0E65 83            [ 4] 2465 	add	a, e
   0E66 47            [ 4] 2466 	ld	b,a
   0E67 C5            [11] 2467 	push	bc
   0E68 D5            [11] 2468 	push	de
   0E69 3E 02         [ 7] 2469 	ld	a,#0x02
   0E6B F5            [11] 2470 	push	af
   0E6C 33            [ 6] 2471 	inc	sp
   0E6D DD 7E FA      [19] 2472 	ld	a,-6 (ix)
   0E70 F5            [11] 2473 	push	af
   0E71 33            [ 6] 2474 	inc	sp
   0E72 C5            [11] 2475 	push	bc
   0E73 33            [ 6] 2476 	inc	sp
   0E74 CDr00r00      [17] 2477 	call	_put_pixel1
   0E77 F1            [10] 2478 	pop	af
   0E78 33            [ 6] 2479 	inc	sp
   0E79 D1            [10] 2480 	pop	de
   0E7A C1            [10] 2481 	pop	bc
   0E7B C3rFEr0E      [10] 2482 	jp	00424$
   0E7E                    2483 00271$:
                           2484 ;puzzmem.c:313: if (x<tailleTile-4 && x%4==(4-mod4)%4) {
   0E7E DD 7E 07      [19] 2485 	ld	a, 7 (ix)
   0E81 16 00         [ 7] 2486 	ld	d, #0x00
   0E83 C6 FC         [ 7] 2487 	add	a,#0xfc
   0E85 47            [ 4] 2488 	ld	b,a
   0E86 7A            [ 4] 2489 	ld	a,d
   0E87 CE FF         [ 7] 2490 	adc	a,#0xff
   0E89 57            [ 4] 2491 	ld	d,a
   0E8A 6B            [ 4] 2492 	ld	l,e
   0E8B 26 00         [ 7] 2493 	ld	h,#0x00
   0E8D 7D            [ 4] 2494 	ld	a,l
   0E8E 90            [ 4] 2495 	sub	a, b
   0E8F 7C            [ 4] 2496 	ld	a,h
   0E90 9A            [ 4] 2497 	sbc	a, d
   0E91 E2r96r0E      [10] 2498 	jp	PO, 01179$
   0E94 EE 80         [ 7] 2499 	xor	a, #0x80
   0E96                    2500 01179$:
   0E96 F2rE5r0E      [10] 2501 	jp	P,00267$
   0E99 7B            [ 4] 2502 	ld	a,e
   0E9A E6 03         [ 7] 2503 	and	a, #0x03
   0E9C DD 77 FF      [19] 2504 	ld	-1 (ix),a
   0E9F DD 56 F0      [19] 2505 	ld	d,-16 (ix)
   0EA2 06 00         [ 7] 2506 	ld	b,#0x00
   0EA4 3E 04         [ 7] 2507 	ld	a,#0x04
   0EA6 92            [ 4] 2508 	sub	a, d
   0EA7 57            [ 4] 2509 	ld	d,a
   0EA8 3E 00         [ 7] 2510 	ld	a,#0x00
   0EAA 98            [ 4] 2511 	sbc	a, b
   0EAB 47            [ 4] 2512 	ld	b,a
   0EAC C5            [11] 2513 	push	bc
   0EAD D5            [11] 2514 	push	de
   0EAE 21 04 00      [10] 2515 	ld	hl,#0x0004
   0EB1 E5            [11] 2516 	push	hl
   0EB2 4A            [ 4] 2517 	ld	c,d
   0EB3 C5            [11] 2518 	push	bc
   0EB4 CDr00r00      [17] 2519 	call	__modsint
   0EB7 F1            [10] 2520 	pop	af
   0EB8 F1            [10] 2521 	pop	af
   0EB9 D1            [10] 2522 	pop	de
   0EBA C1            [10] 2523 	pop	bc
   0EBB DD 7E FF      [19] 2524 	ld	a, -1 (ix)
   0EBE 16 00         [ 7] 2525 	ld	d, #0x00
   0EC0 95            [ 4] 2526 	sub	a, l
   0EC1 20 22         [12] 2527 	jr	NZ,00267$
   0EC3 7A            [ 4] 2528 	ld	a,d
   0EC4 94            [ 4] 2529 	sub	a, h
   0EC5 20 1E         [12] 2530 	jr	NZ,00267$
                           2531 ;puzzmem.c:314: put_pixel_byte1(offset_x+x,offset_y+y,2);
   0EC7 DD 7E 04      [19] 2532 	ld	a,4 (ix)
   0ECA 83            [ 4] 2533 	add	a, e
   0ECB 47            [ 4] 2534 	ld	b,a
   0ECC C5            [11] 2535 	push	bc
   0ECD D5            [11] 2536 	push	de
   0ECE 3E 02         [ 7] 2537 	ld	a,#0x02
   0ED0 F5            [11] 2538 	push	af
   0ED1 33            [ 6] 2539 	inc	sp
   0ED2 DD 7E F8      [19] 2540 	ld	a,-8 (ix)
   0ED5 F5            [11] 2541 	push	af
   0ED6 33            [ 6] 2542 	inc	sp
   0ED7 C5            [11] 2543 	push	bc
   0ED8 33            [ 6] 2544 	inc	sp
   0ED9 CDr00r00      [17] 2545 	call	_put_pixel_byte1
   0EDC F1            [10] 2546 	pop	af
   0EDD 33            [ 6] 2547 	inc	sp
   0EDE D1            [10] 2548 	pop	de
   0EDF C1            [10] 2549 	pop	bc
                           2550 ;puzzmem.c:315: x+=3; // x+=4;
   0EE0 1C            [ 4] 2551 	inc	e
   0EE1 1C            [ 4] 2552 	inc	e
   0EE2 1C            [ 4] 2553 	inc	e
   0EE3 18 19         [12] 2554 	jr	00424$
   0EE5                    2555 00267$:
                           2556 ;puzzmem.c:317: put_pixel1(offset_x+x,offset_y+y,2);
   0EE5 DD 7E 04      [19] 2557 	ld	a,4 (ix)
   0EE8 83            [ 4] 2558 	add	a, e
   0EE9 47            [ 4] 2559 	ld	b,a
   0EEA C5            [11] 2560 	push	bc
   0EEB D5            [11] 2561 	push	de
   0EEC 3E 02         [ 7] 2562 	ld	a,#0x02
   0EEE F5            [11] 2563 	push	af
   0EEF 33            [ 6] 2564 	inc	sp
   0EF0 DD 7E F7      [19] 2565 	ld	a,-9 (ix)
   0EF3 F5            [11] 2566 	push	af
   0EF4 33            [ 6] 2567 	inc	sp
   0EF5 C5            [11] 2568 	push	bc
   0EF6 33            [ 6] 2569 	inc	sp
   0EF7 CDr00r00      [17] 2570 	call	_put_pixel1
   0EFA F1            [10] 2571 	pop	af
   0EFB 33            [ 6] 2572 	inc	sp
   0EFC D1            [10] 2573 	pop	de
   0EFD C1            [10] 2574 	pop	bc
   0EFE                    2575 00424$:
                           2576 ;puzzmem.c:307: for (x=0;x<tailleTile;x++) {
   0EFE 1C            [ 4] 2577 	inc	e
   0EFF C3r2Fr0E      [10] 2578 	jp	00423$
   0F02                    2579 00427$:
                           2580 ;puzzmem.c:306: for (y=0;y<tailleTile;y++) {
   0F02 DD 34 F1      [23] 2581 	inc	-15 (ix)
   0F05 C3r02r0E      [10] 2582 	jp	00426$
                           2583 ;puzzmem.c:323: case 17 :
   0F08                    2584 00279$:
                           2585 ;puzzmem.c:325: for (y=0;y<tailleTile;y++) {
   0F08 DD 4E 07      [19] 2586 	ld	c,7 (ix)
   0F0B CB 39         [ 8] 2587 	srl	c
   0F0D DD 36 F1 00   [19] 2588 	ld	-15 (ix),#0x00
   0F11                    2589 00432$:
   0F11 DD 7E F1      [19] 2590 	ld	a,-15 (ix)
   0F14 DD 96 07      [19] 2591 	sub	a, 7 (ix)
   0F17 D2r84r14      [10] 2592 	jp	NC,00323$
                           2593 ;puzzmem.c:326: for (x=0;x<tailleTile;x++) {
   0F1A 1E 00         [ 7] 2594 	ld	e,#0x00
   0F1C DD 7E F1      [19] 2595 	ld	a,-15 (ix)
   0F1F 91            [ 4] 2596 	sub	a, c
   0F20 3E 00         [ 7] 2597 	ld	a,#0x00
   0F22 17            [ 4] 2598 	rla
   0F23 DD 77 FE      [19] 2599 	ld	-2 (ix),a
   0F26 DD 7E 05      [19] 2600 	ld	a,5 (ix)
   0F29 DD 86 F1      [19] 2601 	add	a, -15 (ix)
   0F2C DD 77 F7      [19] 2602 	ld	-9 (ix), a
   0F2F DD 77 F8      [19] 2603 	ld	-8 (ix),a
   0F32 DD 7E F7      [19] 2604 	ld	a,-9 (ix)
   0F35 DD 77 FA      [19] 2605 	ld	-6 (ix),a
   0F38 DD 7E F7      [19] 2606 	ld	a,-9 (ix)
   0F3B DD 77 FC      [19] 2607 	ld	-4 (ix),a
   0F3E                    2608 00429$:
   0F3E 7B            [ 4] 2609 	ld	a,e
   0F3F DD 96 07      [19] 2610 	sub	a, 7 (ix)
   0F42 D2r11r10      [10] 2611 	jp	NC,00433$
                           2612 ;puzzmem.c:327: if (x<tailleTile/2 && y>=tailleTile/2) {
   0F45 7B            [ 4] 2613 	ld	a,e
   0F46 91            [ 4] 2614 	sub	a, c
   0F47 30 22         [12] 2615 	jr	NC,00288$
   0F49 DD 7E F1      [19] 2616 	ld	a,-15 (ix)
   0F4C 91            [ 4] 2617 	sub	a, c
   0F4D 38 1C         [12] 2618 	jr	C,00288$
                           2619 ;puzzmem.c:328: put_pixel1(offset_x+x,offset_y+y,3);
   0F4F DD 7E 04      [19] 2620 	ld	a,4 (ix)
   0F52 83            [ 4] 2621 	add	a, e
   0F53 47            [ 4] 2622 	ld	b,a
   0F54 C5            [11] 2623 	push	bc
   0F55 D5            [11] 2624 	push	de
   0F56 3E 03         [ 7] 2625 	ld	a,#0x03
   0F58 F5            [11] 2626 	push	af
   0F59 33            [ 6] 2627 	inc	sp
   0F5A DD 7E FC      [19] 2628 	ld	a,-4 (ix)
   0F5D F5            [11] 2629 	push	af
   0F5E 33            [ 6] 2630 	inc	sp
   0F5F C5            [11] 2631 	push	bc
   0F60 33            [ 6] 2632 	inc	sp
   0F61 CDr00r00      [17] 2633 	call	_put_pixel1
   0F64 F1            [10] 2634 	pop	af
   0F65 33            [ 6] 2635 	inc	sp
   0F66 D1            [10] 2636 	pop	de
   0F67 C1            [10] 2637 	pop	bc
   0F68 C3r0Dr10      [10] 2638 	jp	00430$
   0F6B                    2639 00288$:
                           2640 ;puzzmem.c:329: } else if (y>=tailleTile/2) {
   0F6B DD CB FE 46   [20] 2641 	bit	0,-2 (ix)
   0F6F 20 1C         [12] 2642 	jr	NZ,00285$
                           2643 ;puzzmem.c:330: put_pixel1(offset_x+x,offset_y+y,2);
   0F71 DD 7E 04      [19] 2644 	ld	a,4 (ix)
   0F74 83            [ 4] 2645 	add	a, e
   0F75 47            [ 4] 2646 	ld	b,a
   0F76 C5            [11] 2647 	push	bc
   0F77 D5            [11] 2648 	push	de
   0F78 3E 02         [ 7] 2649 	ld	a,#0x02
   0F7A F5            [11] 2650 	push	af
   0F7B 33            [ 6] 2651 	inc	sp
   0F7C DD 7E FA      [19] 2652 	ld	a,-6 (ix)
   0F7F F5            [11] 2653 	push	af
   0F80 33            [ 6] 2654 	inc	sp
   0F81 C5            [11] 2655 	push	bc
   0F82 33            [ 6] 2656 	inc	sp
   0F83 CDr00r00      [17] 2657 	call	_put_pixel1
   0F86 F1            [10] 2658 	pop	af
   0F87 33            [ 6] 2659 	inc	sp
   0F88 D1            [10] 2660 	pop	de
   0F89 C1            [10] 2661 	pop	bc
   0F8A C3r0Dr10      [10] 2662 	jp	00430$
   0F8D                    2663 00285$:
                           2664 ;puzzmem.c:332: if (x<tailleTile-4 && x%4==(4-mod4)%4) {
   0F8D DD 7E 07      [19] 2665 	ld	a, 7 (ix)
   0F90 16 00         [ 7] 2666 	ld	d, #0x00
   0F92 C6 FC         [ 7] 2667 	add	a,#0xfc
   0F94 47            [ 4] 2668 	ld	b,a
   0F95 7A            [ 4] 2669 	ld	a,d
   0F96 CE FF         [ 7] 2670 	adc	a,#0xff
   0F98 57            [ 4] 2671 	ld	d,a
   0F99 6B            [ 4] 2672 	ld	l,e
   0F9A 26 00         [ 7] 2673 	ld	h,#0x00
   0F9C 7D            [ 4] 2674 	ld	a,l
   0F9D 90            [ 4] 2675 	sub	a, b
   0F9E 7C            [ 4] 2676 	ld	a,h
   0F9F 9A            [ 4] 2677 	sbc	a, d
   0FA0 E2rA5r0F      [10] 2678 	jp	PO, 01182$
   0FA3 EE 80         [ 7] 2679 	xor	a, #0x80
   0FA5                    2680 01182$:
   0FA5 F2rF4r0F      [10] 2681 	jp	P,00281$
   0FA8 7B            [ 4] 2682 	ld	a,e
   0FA9 E6 03         [ 7] 2683 	and	a, #0x03
   0FAB DD 77 FF      [19] 2684 	ld	-1 (ix),a
   0FAE DD 56 F0      [19] 2685 	ld	d,-16 (ix)
   0FB1 06 00         [ 7] 2686 	ld	b,#0x00
   0FB3 3E 04         [ 7] 2687 	ld	a,#0x04
   0FB5 92            [ 4] 2688 	sub	a, d
   0FB6 57            [ 4] 2689 	ld	d,a
   0FB7 3E 00         [ 7] 2690 	ld	a,#0x00
   0FB9 98            [ 4] 2691 	sbc	a, b
   0FBA 47            [ 4] 2692 	ld	b,a
   0FBB C5            [11] 2693 	push	bc
   0FBC D5            [11] 2694 	push	de
   0FBD 21 04 00      [10] 2695 	ld	hl,#0x0004
   0FC0 E5            [11] 2696 	push	hl
   0FC1 4A            [ 4] 2697 	ld	c,d
   0FC2 C5            [11] 2698 	push	bc
   0FC3 CDr00r00      [17] 2699 	call	__modsint
   0FC6 F1            [10] 2700 	pop	af
   0FC7 F1            [10] 2701 	pop	af
   0FC8 D1            [10] 2702 	pop	de
   0FC9 C1            [10] 2703 	pop	bc
   0FCA DD 7E FF      [19] 2704 	ld	a, -1 (ix)
   0FCD 16 00         [ 7] 2705 	ld	d, #0x00
   0FCF 95            [ 4] 2706 	sub	a, l
   0FD0 20 22         [12] 2707 	jr	NZ,00281$
   0FD2 7A            [ 4] 2708 	ld	a,d
   0FD3 94            [ 4] 2709 	sub	a, h
   0FD4 20 1E         [12] 2710 	jr	NZ,00281$
                           2711 ;puzzmem.c:333: put_pixel_byte1(offset_x+x,offset_y+y,2);
   0FD6 DD 7E 04      [19] 2712 	ld	a,4 (ix)
   0FD9 83            [ 4] 2713 	add	a, e
   0FDA 47            [ 4] 2714 	ld	b,a
   0FDB C5            [11] 2715 	push	bc
   0FDC D5            [11] 2716 	push	de
   0FDD 3E 02         [ 7] 2717 	ld	a,#0x02
   0FDF F5            [11] 2718 	push	af
   0FE0 33            [ 6] 2719 	inc	sp
   0FE1 DD 7E F8      [19] 2720 	ld	a,-8 (ix)
   0FE4 F5            [11] 2721 	push	af
   0FE5 33            [ 6] 2722 	inc	sp
   0FE6 C5            [11] 2723 	push	bc
   0FE7 33            [ 6] 2724 	inc	sp
   0FE8 CDr00r00      [17] 2725 	call	_put_pixel_byte1
   0FEB F1            [10] 2726 	pop	af
   0FEC 33            [ 6] 2727 	inc	sp
   0FED D1            [10] 2728 	pop	de
   0FEE C1            [10] 2729 	pop	bc
                           2730 ;puzzmem.c:334: x+=3; // x+=4;
   0FEF 1C            [ 4] 2731 	inc	e
   0FF0 1C            [ 4] 2732 	inc	e
   0FF1 1C            [ 4] 2733 	inc	e
   0FF2 18 19         [12] 2734 	jr	00430$
   0FF4                    2735 00281$:
                           2736 ;puzzmem.c:336: put_pixel1(offset_x+x,offset_y+y,2);
   0FF4 DD 7E 04      [19] 2737 	ld	a,4 (ix)
   0FF7 83            [ 4] 2738 	add	a, e
   0FF8 47            [ 4] 2739 	ld	b,a
   0FF9 C5            [11] 2740 	push	bc
   0FFA D5            [11] 2741 	push	de
   0FFB 3E 02         [ 7] 2742 	ld	a,#0x02
   0FFD F5            [11] 2743 	push	af
   0FFE 33            [ 6] 2744 	inc	sp
   0FFF DD 7E F7      [19] 2745 	ld	a,-9 (ix)
   1002 F5            [11] 2746 	push	af
   1003 33            [ 6] 2747 	inc	sp
   1004 C5            [11] 2748 	push	bc
   1005 33            [ 6] 2749 	inc	sp
   1006 CDr00r00      [17] 2750 	call	_put_pixel1
   1009 F1            [10] 2751 	pop	af
   100A 33            [ 6] 2752 	inc	sp
   100B D1            [10] 2753 	pop	de
   100C C1            [10] 2754 	pop	bc
   100D                    2755 00430$:
                           2756 ;puzzmem.c:326: for (x=0;x<tailleTile;x++) {
   100D 1C            [ 4] 2757 	inc	e
   100E C3r3Er0F      [10] 2758 	jp	00429$
   1011                    2759 00433$:
                           2760 ;puzzmem.c:325: for (y=0;y<tailleTile;y++) {
   1011 DD 34 F1      [23] 2761 	inc	-15 (ix)
   1014 C3r11r0F      [10] 2762 	jp	00432$
                           2763 ;puzzmem.c:342: case 18 :
   1017                    2764 00293$:
                           2765 ;puzzmem.c:344: for (y=0;y<tailleTile;y++) {
   1017 DD 36 F1 00   [19] 2766 	ld	-15 (ix),#0x00
   101B                    2767 00438$:
   101B DD 7E F1      [19] 2768 	ld	a,-15 (ix)
   101E DD 96 07      [19] 2769 	sub	a, 7 (ix)
   1021 D2r84r14      [10] 2770 	jp	NC,00323$
                           2771 ;puzzmem.c:345: for (x=0;x<tailleTile;x++) {
   1024 06 00         [ 7] 2772 	ld	b,#0x00
   1026 DD 7E 05      [19] 2773 	ld	a,5 (ix)
   1029 DD 86 F1      [19] 2774 	add	a, -15 (ix)
   102C 5F            [ 4] 2775 	ld	e,a
   102D DD 73 F7      [19] 2776 	ld	-9 (ix),e
   1030                    2777 00435$:
   1030 78            [ 4] 2778 	ld	a,b
   1031 DD 96 07      [19] 2779 	sub	a, 7 (ix)
   1034 D2rB8r10      [10] 2780 	jp	NC,00439$
                           2781 ;puzzmem.c:346: if (x<tailleTile-4 && x%4==(4-mod4)%4) {
   1037 DD 4E 07      [19] 2782 	ld	c,7 (ix)
   103A 16 00         [ 7] 2783 	ld	d,#0x00
   103C 79            [ 4] 2784 	ld	a,c
   103D C6 FC         [ 7] 2785 	add	a,#0xfc
   103F 4F            [ 4] 2786 	ld	c,a
   1040 7A            [ 4] 2787 	ld	a,d
   1041 CE FF         [ 7] 2788 	adc	a,#0xff
   1043 57            [ 4] 2789 	ld	d,a
   1044 68            [ 4] 2790 	ld	l,b
   1045 26 00         [ 7] 2791 	ld	h,#0x00
   1047 7D            [ 4] 2792 	ld	a,l
   1048 91            [ 4] 2793 	sub	a, c
   1049 7C            [ 4] 2794 	ld	a,h
   104A 9A            [ 4] 2795 	sbc	a, d
   104B E2r50r10      [10] 2796 	jp	PO, 01185$
   104E EE 80         [ 7] 2797 	xor	a, #0x80
   1050                    2798 01185$:
   1050 F2rA0r10      [10] 2799 	jp	P,00295$
   1053 78            [ 4] 2800 	ld	a,b
   1054 E6 03         [ 7] 2801 	and	a, #0x03
   1056 DD 77 F8      [19] 2802 	ld	-8 (ix),a
   1059 DD 56 F0      [19] 2803 	ld	d,-16 (ix)
   105C 0E 00         [ 7] 2804 	ld	c,#0x00
   105E 3E 04         [ 7] 2805 	ld	a,#0x04
   1060 92            [ 4] 2806 	sub	a, d
   1061 57            [ 4] 2807 	ld	d,a
   1062 3E 00         [ 7] 2808 	ld	a,#0x00
   1064 99            [ 4] 2809 	sbc	a, c
   1065 4F            [ 4] 2810 	ld	c,a
   1066 C5            [11] 2811 	push	bc
   1067 D5            [11] 2812 	push	de
   1068 21 04 00      [10] 2813 	ld	hl,#0x0004
   106B E5            [11] 2814 	push	hl
   106C 6A            [ 4] 2815 	ld	l, d
   106D 61            [ 4] 2816 	ld	h, c
   106E E5            [11] 2817 	push	hl
   106F CDr00r00      [17] 2818 	call	__modsint
   1072 F1            [10] 2819 	pop	af
   1073 F1            [10] 2820 	pop	af
   1074 D1            [10] 2821 	pop	de
   1075 C1            [10] 2822 	pop	bc
   1076 DD 7E F8      [19] 2823 	ld	a, -8 (ix)
   1079 16 00         [ 7] 2824 	ld	d, #0x00
   107B 95            [ 4] 2825 	sub	a, l
   107C 20 22         [12] 2826 	jr	NZ,00295$
   107E 7A            [ 4] 2827 	ld	a,d
   107F 94            [ 4] 2828 	sub	a, h
   1080 20 1E         [12] 2829 	jr	NZ,00295$
                           2830 ;puzzmem.c:347: put_pixel_byte1(offset_x+x,offset_y+y,0);
   1082 DD 7E 04      [19] 2831 	ld	a,4 (ix)
   1085 80            [ 4] 2832 	add	a, b
   1086 4F            [ 4] 2833 	ld	c,a
   1087 C5            [11] 2834 	push	bc
   1088 D5            [11] 2835 	push	de
   1089 AF            [ 4] 2836 	xor	a, a
   108A F5            [11] 2837 	push	af
   108B 33            [ 6] 2838 	inc	sp
   108C DD 7E F7      [19] 2839 	ld	a,-9 (ix)
   108F F5            [11] 2840 	push	af
   1090 33            [ 6] 2841 	inc	sp
   1091 79            [ 4] 2842 	ld	a,c
   1092 F5            [11] 2843 	push	af
   1093 33            [ 6] 2844 	inc	sp
   1094 CDr00r00      [17] 2845 	call	_put_pixel_byte1
   1097 F1            [10] 2846 	pop	af
   1098 33            [ 6] 2847 	inc	sp
   1099 D1            [10] 2848 	pop	de
   109A C1            [10] 2849 	pop	bc
                           2850 ;puzzmem.c:348: x+=3; // x+=4;
   109B 04            [ 4] 2851 	inc	b
   109C 04            [ 4] 2852 	inc	b
   109D 04            [ 4] 2853 	inc	b
   109E 18 14         [12] 2854 	jr	00436$
   10A0                    2855 00295$:
                           2856 ;puzzmem.c:350: put_pixel1(offset_x+x,offset_y+y,0);
   10A0 DD 7E 04      [19] 2857 	ld	a,4 (ix)
   10A3 80            [ 4] 2858 	add	a, b
   10A4 4F            [ 4] 2859 	ld	c,a
   10A5 C5            [11] 2860 	push	bc
   10A6 D5            [11] 2861 	push	de
   10A7 AF            [ 4] 2862 	xor	a, a
   10A8 57            [ 4] 2863 	ld	d,a
   10A9 D5            [11] 2864 	push	de
   10AA 79            [ 4] 2865 	ld	a,c
   10AB F5            [11] 2866 	push	af
   10AC 33            [ 6] 2867 	inc	sp
   10AD CDr00r00      [17] 2868 	call	_put_pixel1
   10B0 F1            [10] 2869 	pop	af
   10B1 33            [ 6] 2870 	inc	sp
   10B2 D1            [10] 2871 	pop	de
   10B3 C1            [10] 2872 	pop	bc
   10B4                    2873 00436$:
                           2874 ;puzzmem.c:345: for (x=0;x<tailleTile;x++) {
   10B4 04            [ 4] 2875 	inc	b
   10B5 C3r30r10      [10] 2876 	jp	00435$
   10B8                    2877 00439$:
                           2878 ;puzzmem.c:344: for (y=0;y<tailleTile;y++) {
   10B8 DD 34 F1      [23] 2879 	inc	-15 (ix)
   10BB C3r1Br10      [10] 2880 	jp	00438$
                           2881 ;puzzmem.c:355: case 19 :
   10BE                    2882 00300$:
                           2883 ;puzzmem.c:358: for (x=0;x<tailleTile+2;x++) {
   10BE 0E 00         [ 7] 2884 	ld	c,#0x00
   10C0 DD 46 05      [19] 2885 	ld	b,5 (ix)
   10C3 05            [ 4] 2886 	dec	b
   10C4 DD 7E 05      [19] 2887 	ld	a,5 (ix)
   10C7 DD 86 07      [19] 2888 	add	a, 7 (ix)
   10CA DD 77 F7      [19] 2889 	ld	-9 (ix),a
   10CD                    2890 00441$:
   10CD DD 5E 07      [19] 2891 	ld	e,7 (ix)
   10D0 16 00         [ 7] 2892 	ld	d,#0x00
   10D2 21 02 00      [10] 2893 	ld	hl,#0x0002
   10D5 19            [11] 2894 	add	hl,de
   10D6 DD 75 FA      [19] 2895 	ld	-6 (ix),l
   10D9 DD 74 FB      [19] 2896 	ld	-5 (ix),h
   10DC DD 71 FC      [19] 2897 	ld	-4 (ix),c
   10DF DD 36 FD 00   [19] 2898 	ld	-3 (ix),#0x00
   10E3 DD 7E FC      [19] 2899 	ld	a,-4 (ix)
   10E6 DD 96 FA      [19] 2900 	sub	a, -6 (ix)
   10E9 DD 7E FD      [19] 2901 	ld	a,-3 (ix)
   10EC DD 9E FB      [19] 2902 	sbc	a, -5 (ix)
   10EF E2rF4r10      [10] 2903 	jp	PO, 01188$
   10F2 EE 80         [ 7] 2904 	xor	a, #0x80
   10F4                    2905 01188$:
   10F4 F2r9Cr11      [10] 2906 	jp	P,00607$
                           2907 ;puzzmem.c:359: if (x<tailleTile-2 && (x+3)%4==(4-mod4)%4) {
   10F7 1B            [ 6] 2908 	dec	de
   10F8 1B            [ 6] 2909 	dec	de
   10F9 DD 7E FC      [19] 2910 	ld	a,-4 (ix)
   10FC 93            [ 4] 2911 	sub	a, e
   10FD DD 7E FD      [19] 2912 	ld	a,-3 (ix)
   1100 9A            [ 4] 2913 	sbc	a, d
   1101 E2r06r11      [10] 2914 	jp	PO, 01189$
   1104 EE 80         [ 7] 2915 	xor	a, #0x80
   1106                    2916 01189$:
   1106 F2r73r11      [10] 2917 	jp	P,00302$
   1109 DD 5E FC      [19] 2918 	ld	e,-4 (ix)
   110C DD 56 FD      [19] 2919 	ld	d,-3 (ix)
   110F 13            [ 6] 2920 	inc	de
   1110 13            [ 6] 2921 	inc	de
   1111 13            [ 6] 2922 	inc	de
   1112 C5            [11] 2923 	push	bc
   1113 21 04 00      [10] 2924 	ld	hl,#0x0004
   1116 E5            [11] 2925 	push	hl
   1117 D5            [11] 2926 	push	de
   1118 CDr00r00      [17] 2927 	call	__modsint
   111B F1            [10] 2928 	pop	af
   111C F1            [10] 2929 	pop	af
   111D DD 74 F9      [19] 2930 	ld	-7 (ix),h
   1120 DD 75 F8      [19] 2931 	ld	-8 (ix),l
   1123 C1            [10] 2932 	pop	bc
   1124 DD 5E F0      [19] 2933 	ld	e,-16 (ix)
   1127 16 00         [ 7] 2934 	ld	d,#0x00
   1129 3E 04         [ 7] 2935 	ld	a,#0x04
   112B 93            [ 4] 2936 	sub	a, e
   112C 5F            [ 4] 2937 	ld	e,a
   112D 3E 00         [ 7] 2938 	ld	a,#0x00
   112F 9A            [ 4] 2939 	sbc	a, d
   1130 57            [ 4] 2940 	ld	d,a
   1131 C5            [11] 2941 	push	bc
   1132 21 04 00      [10] 2942 	ld	hl,#0x0004
   1135 E5            [11] 2943 	push	hl
   1136 D5            [11] 2944 	push	de
   1137 CDr00r00      [17] 2945 	call	__modsint
   113A F1            [10] 2946 	pop	af
   113B F1            [10] 2947 	pop	af
   113C C1            [10] 2948 	pop	bc
   113D DD 7E F8      [19] 2949 	ld	a,-8 (ix)
   1140 95            [ 4] 2950 	sub	a, l
   1141 20 30         [12] 2951 	jr	NZ,00302$
   1143 DD 7E F9      [19] 2952 	ld	a,-7 (ix)
   1146 94            [ 4] 2953 	sub	a, h
   1147 20 2A         [12] 2954 	jr	NZ,00302$
                           2955 ;puzzmem.c:360: put_pixel_byte1(offset_x+x-1,offset_y-1,1);
   1149 DD 7E 04      [19] 2956 	ld	a,4 (ix)
   114C 81            [ 4] 2957 	add	a, c
   114D 5F            [ 4] 2958 	ld	e, a
   114E 1D            [ 4] 2959 	dec	e
   114F C5            [11] 2960 	push	bc
   1150 D5            [11] 2961 	push	de
   1151 3E 01         [ 7] 2962 	ld	a,#0x01
   1153 F5            [11] 2963 	push	af
   1154 33            [ 6] 2964 	inc	sp
   1155 C5            [11] 2965 	push	bc
   1156 33            [ 6] 2966 	inc	sp
   1157 7B            [ 4] 2967 	ld	a,e
   1158 F5            [11] 2968 	push	af
   1159 33            [ 6] 2969 	inc	sp
   115A CDr00r00      [17] 2970 	call	_put_pixel_byte1
   115D F1            [10] 2971 	pop	af
   115E 33            [ 6] 2972 	inc	sp
   115F D1            [10] 2973 	pop	de
   1160 3E 01         [ 7] 2974 	ld	a,#0x01
   1162 F5            [11] 2975 	push	af
   1163 33            [ 6] 2976 	inc	sp
   1164 DD 56 F7      [19] 2977 	ld	d, -9 (ix)
   1167 D5            [11] 2978 	push	de
   1168 CDr00r00      [17] 2979 	call	_put_pixel_byte1
   116B F1            [10] 2980 	pop	af
   116C 33            [ 6] 2981 	inc	sp
   116D C1            [10] 2982 	pop	bc
                           2983 ;puzzmem.c:362: x+=3; // x+=4;
   116E 0C            [ 4] 2984 	inc	c
   116F 0C            [ 4] 2985 	inc	c
   1170 0C            [ 4] 2986 	inc	c
   1171 18 25         [12] 2987 	jr	00442$
   1173                    2988 00302$:
                           2989 ;puzzmem.c:364: put_pixel1(offset_x+x-1,offset_y-1,1);
   1173 DD 7E 04      [19] 2990 	ld	a,4 (ix)
   1176 81            [ 4] 2991 	add	a, c
   1177 5F            [ 4] 2992 	ld	e, a
   1178 1D            [ 4] 2993 	dec	e
   1179 C5            [11] 2994 	push	bc
   117A D5            [11] 2995 	push	de
   117B 3E 01         [ 7] 2996 	ld	a,#0x01
   117D F5            [11] 2997 	push	af
   117E 33            [ 6] 2998 	inc	sp
   117F C5            [11] 2999 	push	bc
   1180 33            [ 6] 3000 	inc	sp
   1181 7B            [ 4] 3001 	ld	a,e
   1182 F5            [11] 3002 	push	af
   1183 33            [ 6] 3003 	inc	sp
   1184 CDr00r00      [17] 3004 	call	_put_pixel1
   1187 F1            [10] 3005 	pop	af
   1188 33            [ 6] 3006 	inc	sp
   1189 D1            [10] 3007 	pop	de
   118A 3E 01         [ 7] 3008 	ld	a,#0x01
   118C F5            [11] 3009 	push	af
   118D 33            [ 6] 3010 	inc	sp
   118E DD 56 F7      [19] 3011 	ld	d, -9 (ix)
   1191 D5            [11] 3012 	push	de
   1192 CDr00r00      [17] 3013 	call	_put_pixel1
   1195 F1            [10] 3014 	pop	af
   1196 33            [ 6] 3015 	inc	sp
   1197 C1            [10] 3016 	pop	bc
   1198                    3017 00442$:
                           3018 ;puzzmem.c:358: for (x=0;x<tailleTile+2;x++) {
   1198 0C            [ 4] 3019 	inc	c
   1199 C3rCDr10      [10] 3020 	jp	00441$
                           3021 ;puzzmem.c:369: for (y=0;y<tailleTile+2;y++) {
   119C                    3022 00607$:
   119C DD 4E 04      [19] 3023 	ld	c,4 (ix)
   119F 0D            [ 4] 3024 	dec	c
   11A0 DD 7E 04      [19] 3025 	ld	a,4 (ix)
   11A3 DD 86 07      [19] 3026 	add	a, 7 (ix)
   11A6 47            [ 4] 3027 	ld	b,a
   11A7 1E 00         [ 7] 3028 	ld	e,#0x00
   11A9                    3029 00444$:
   11A9 6B            [ 4] 3030 	ld	l,e
   11AA 26 00         [ 7] 3031 	ld	h,#0x00
   11AC 7D            [ 4] 3032 	ld	a,l
   11AD DD 96 FA      [19] 3033 	sub	a, -6 (ix)
   11B0 7C            [ 4] 3034 	ld	a,h
   11B1 DD 9E FB      [19] 3035 	sbc	a, -5 (ix)
   11B4 E2rB9r11      [10] 3036 	jp	PO, 01192$
   11B7 EE 80         [ 7] 3037 	xor	a, #0x80
   11B9                    3038 01192$:
   11B9 F2r84r14      [10] 3039 	jp	P,00323$
                           3040 ;puzzmem.c:370: put_pixel1(offset_x-1,offset_y+y-1,1);
   11BC DD 7E 05      [19] 3041 	ld	a,5 (ix)
   11BF 83            [ 4] 3042 	add	a, e
   11C0 57            [ 4] 3043 	ld	d, a
   11C1 15            [ 4] 3044 	dec	d
   11C2 C5            [11] 3045 	push	bc
   11C3 D5            [11] 3046 	push	de
   11C4 3E 01         [ 7] 3047 	ld	a,#0x01
   11C6 F5            [11] 3048 	push	af
   11C7 33            [ 6] 3049 	inc	sp
   11C8 D5            [11] 3050 	push	de
   11C9 33            [ 6] 3051 	inc	sp
   11CA 79            [ 4] 3052 	ld	a,c
   11CB F5            [11] 3053 	push	af
   11CC 33            [ 6] 3054 	inc	sp
   11CD CDr00r00      [17] 3055 	call	_put_pixel1
   11D0 F1            [10] 3056 	pop	af
   11D1 33            [ 6] 3057 	inc	sp
   11D2 D1            [10] 3058 	pop	de
   11D3 C1            [10] 3059 	pop	bc
                           3060 ;puzzmem.c:371: put_pixel1(offset_x+tailleTile,offset_y+y-1,1);
   11D4 C5            [11] 3061 	push	bc
   11D5 D5            [11] 3062 	push	de
   11D6 3E 01         [ 7] 3063 	ld	a,#0x01
   11D8 F5            [11] 3064 	push	af
   11D9 33            [ 6] 3065 	inc	sp
   11DA D5            [11] 3066 	push	de
   11DB 33            [ 6] 3067 	inc	sp
   11DC C5            [11] 3068 	push	bc
   11DD 33            [ 6] 3069 	inc	sp
   11DE CDr00r00      [17] 3070 	call	_put_pixel1
   11E1 F1            [10] 3071 	pop	af
   11E2 33            [ 6] 3072 	inc	sp
   11E3 D1            [10] 3073 	pop	de
   11E4 C1            [10] 3074 	pop	bc
                           3075 ;puzzmem.c:369: for (y=0;y<tailleTile+2;y++) {
   11E5 1C            [ 4] 3076 	inc	e
   11E6 18 C1         [12] 3077 	jr	00444$
                           3078 ;puzzmem.c:374: case 20 :
   11E8                    3079 00307$:
                           3080 ;puzzmem.c:376: for (x=1;x<tailleTile-1;x++) {
   11E8 DD 4E 07      [19] 3081 	ld	c,7 (ix)
   11EB 06 00         [ 7] 3082 	ld	b,#0x00
   11ED 69            [ 4] 3083 	ld	l, c
   11EE 60            [ 4] 3084 	ld	h, b
   11EF 29            [11] 3085 	add	hl, hl
   11F0 09            [11] 3086 	add	hl, bc
   11F1 DD 75 F3      [19] 3087 	ld	-13 (ix),l
   11F4 DD 74 F4      [19] 3088 	ld	-12 (ix), h
   11F7 7C            [ 4] 3089 	ld	a, h
   11F8 07            [ 4] 3090 	rlca
   11F9 E6 01         [ 7] 3091 	and	a,#0x01
   11FB DD 77 FA      [19] 3092 	ld	-6 (ix),a
   11FE DD 7E 07      [19] 3093 	ld	a,7 (ix)
   1201 0F            [ 4] 3094 	rrca
   1202 0F            [ 4] 3095 	rrca
   1203 E6 3F         [ 7] 3096 	and	a,#0x3f
   1205 DD 77 FC      [19] 3097 	ld	-4 (ix),a
   1208 DD 7E 05      [19] 3098 	ld	a,5 (ix)
   120B 3C            [ 4] 3099 	inc	a
   120C DD 77 F7      [19] 3100 	ld	-9 (ix),a
   120F DD 7E 05      [19] 3101 	ld	a,5 (ix)
   1212 DD 86 07      [19] 3102 	add	a, 7 (ix)
   1215 C6 FE         [ 7] 3103 	add	a,#0xfe
   1217 DD 77 F8      [19] 3104 	ld	-8 (ix),a
   121A DD 36 F2 01   [19] 3105 	ld	-14 (ix),#0x01
   121E                    3106 00447$:
   121E DD 5E 07      [19] 3107 	ld	e,7 (ix)
   1221 16 00         [ 7] 3108 	ld	d,#0x00
   1223 1B            [ 6] 3109 	dec	de
   1224 DD 7E F2      [19] 3110 	ld	a,-14 (ix)
   1227 DD 77 F5      [19] 3111 	ld	-11 (ix),a
   122A DD 36 F6 00   [19] 3112 	ld	-10 (ix),#0x00
   122E DD 7E F5      [19] 3113 	ld	a,-11 (ix)
   1231 93            [ 4] 3114 	sub	a, e
   1232 DD 7E F6      [19] 3115 	ld	a,-10 (ix)
   1235 9A            [ 4] 3116 	sbc	a, d
   1236 E2r3Br12      [10] 3117 	jp	PO, 01193$
   1239 EE 80         [ 7] 3118 	xor	a, #0x80
   123B                    3119 01193$:
   123B F2rB4r12      [10] 3120 	jp	P,00311$
                           3121 ;puzzmem.c:377: if (x<=tailleTile/4+1 || x>=tailleTile*3/4) {
   123E DD 4E FC      [19] 3122 	ld	c, -4 (ix)
   1241 06 00         [ 7] 3123 	ld	b, #0x00
   1243 03            [ 6] 3124 	inc	bc
   1244 79            [ 4] 3125 	ld	a,c
   1245 DD 96 F5      [19] 3126 	sub	a, -11 (ix)
   1248 78            [ 4] 3127 	ld	a,b
   1249 DD 9E F6      [19] 3128 	sbc	a, -10 (ix)
   124C E2r51r12      [10] 3129 	jp	PO, 01194$
   124F EE 80         [ 7] 3130 	xor	a, #0x80
   1251                    3131 01194$:
   1251 F2r83r12      [10] 3132 	jp	P,00308$
   1254 DD 4E F3      [19] 3133 	ld	c,-13 (ix)
   1257 DD 46 F4      [19] 3134 	ld	b,-12 (ix)
   125A DD 7E FA      [19] 3135 	ld	a,-6 (ix)
   125D B7            [ 4] 3136 	or	a, a
   125E 28 09         [12] 3137 	jr	Z,00460$
   1260 DD 4E F3      [19] 3138 	ld	c,-13 (ix)
   1263 DD 46 F4      [19] 3139 	ld	b,-12 (ix)
   1266 03            [ 6] 3140 	inc	bc
   1267 03            [ 6] 3141 	inc	bc
   1268 03            [ 6] 3142 	inc	bc
   1269                    3143 00460$:
   1269 69            [ 4] 3144 	ld	l, c
   126A 60            [ 4] 3145 	ld	h, b
   126B CB 2C         [ 8] 3146 	sra	h
   126D CB 1D         [ 8] 3147 	rr	l
   126F CB 2C         [ 8] 3148 	sra	h
   1271 CB 1D         [ 8] 3149 	rr	l
   1273 DD 7E F2      [19] 3150 	ld	a, -14 (ix)
   1276 06 00         [ 7] 3151 	ld	b, #0x00
   1278 95            [ 4] 3152 	sub	a, l
   1279 78            [ 4] 3153 	ld	a,b
   127A 9C            [ 4] 3154 	sbc	a, h
   127B E2r80r12      [10] 3155 	jp	PO, 01195$
   127E EE 80         [ 7] 3156 	xor	a, #0x80
   1280                    3157 01195$:
   1280 FArAEr12      [10] 3158 	jp	M,00448$
   1283                    3159 00308$:
                           3160 ;puzzmem.c:378: put_pixel1(offset_x+x,offset_y+1,1);
   1283 DD 7E 04      [19] 3161 	ld	a,4 (ix)
   1286 DD 86 F2      [19] 3162 	add	a, -14 (ix)
   1289 4F            [ 4] 3163 	ld	c,a
   128A C5            [11] 3164 	push	bc
   128B 3E 01         [ 7] 3165 	ld	a,#0x01
   128D F5            [11] 3166 	push	af
   128E 33            [ 6] 3167 	inc	sp
   128F DD 7E F7      [19] 3168 	ld	a,-9 (ix)
   1292 F5            [11] 3169 	push	af
   1293 33            [ 6] 3170 	inc	sp
   1294 79            [ 4] 3171 	ld	a,c
   1295 F5            [11] 3172 	push	af
   1296 33            [ 6] 3173 	inc	sp
   1297 CDr00r00      [17] 3174 	call	_put_pixel1
   129A F1            [10] 3175 	pop	af
   129B 33            [ 6] 3176 	inc	sp
   129C C1            [10] 3177 	pop	bc
                           3178 ;puzzmem.c:379: put_pixel1(offset_x+x,offset_y+tailleTile-2,1);
   129D 3E 01         [ 7] 3179 	ld	a,#0x01
   129F F5            [11] 3180 	push	af
   12A0 33            [ 6] 3181 	inc	sp
   12A1 DD 7E F8      [19] 3182 	ld	a,-8 (ix)
   12A4 F5            [11] 3183 	push	af
   12A5 33            [ 6] 3184 	inc	sp
   12A6 79            [ 4] 3185 	ld	a,c
   12A7 F5            [11] 3186 	push	af
   12A8 33            [ 6] 3187 	inc	sp
   12A9 CDr00r00      [17] 3188 	call	_put_pixel1
   12AC F1            [10] 3189 	pop	af
   12AD 33            [ 6] 3190 	inc	sp
   12AE                    3191 00448$:
                           3192 ;puzzmem.c:376: for (x=1;x<tailleTile-1;x++) {
   12AE DD 34 F2      [23] 3193 	inc	-14 (ix)
   12B1 C3r1Er12      [10] 3194 	jp	00447$
   12B4                    3195 00311$:
                           3196 ;puzzmem.c:382: for (y=1;y<tailleTile-1;y++) {
   12B4 DD 7E 04      [19] 3197 	ld	a,4 (ix)
   12B7 3C            [ 4] 3198 	inc	a
   12B8 DD 77 F7      [19] 3199 	ld	-9 (ix),a
   12BB DD 7E 04      [19] 3200 	ld	a,4 (ix)
   12BE DD 86 07      [19] 3201 	add	a, 7 (ix)
   12C1 C6 FE         [ 7] 3202 	add	a,#0xfe
   12C3 DD 77 F5      [19] 3203 	ld	-11 (ix),a
   12C6 DD 36 F1 01   [19] 3204 	ld	-15 (ix),#0x01
   12CA                    3205 00450$:
   12CA DD 7E F1      [19] 3206 	ld	a,-15 (ix)
   12CD DD 77 F8      [19] 3207 	ld	-8 (ix),a
   12D0 DD 36 F9 00   [19] 3208 	ld	-7 (ix),#0x00
   12D4 DD 7E F8      [19] 3209 	ld	a,-8 (ix)
   12D7 93            [ 4] 3210 	sub	a, e
   12D8 DD 7E F9      [19] 3211 	ld	a,-7 (ix)
   12DB 9A            [ 4] 3212 	sbc	a, d
   12DC E2rE1r12      [10] 3213 	jp	PO, 01196$
   12DF EE 80         [ 7] 3214 	xor	a, #0x80
   12E1                    3215 01196$:
   12E1 F2r84r14      [10] 3216 	jp	P,00323$
                           3217 ;puzzmem.c:383: if (y<=tailleTile/4+1 || y>=tailleTile*3/4) {
   12E4 DD 4E FC      [19] 3218 	ld	c, -4 (ix)
   12E7 06 00         [ 7] 3219 	ld	b, #0x00
   12E9 03            [ 6] 3220 	inc	bc
   12EA 79            [ 4] 3221 	ld	a,c
   12EB DD 96 F8      [19] 3222 	sub	a, -8 (ix)
   12EE 78            [ 4] 3223 	ld	a,b
   12EF DD 9E F9      [19] 3224 	sbc	a, -7 (ix)
   12F2 E2rF7r12      [10] 3225 	jp	PO, 01197$
   12F5 EE 80         [ 7] 3226 	xor	a, #0x80
   12F7                    3227 01197$:
   12F7 F2r29r13      [10] 3228 	jp	P,00312$
   12FA DD 4E F3      [19] 3229 	ld	c,-13 (ix)
   12FD DD 46 F4      [19] 3230 	ld	b,-12 (ix)
   1300 DD 7E FA      [19] 3231 	ld	a,-6 (ix)
   1303 B7            [ 4] 3232 	or	a, a
   1304 28 09         [12] 3233 	jr	Z,00461$
   1306 DD 4E F3      [19] 3234 	ld	c,-13 (ix)
   1309 DD 46 F4      [19] 3235 	ld	b,-12 (ix)
   130C 03            [ 6] 3236 	inc	bc
   130D 03            [ 6] 3237 	inc	bc
   130E 03            [ 6] 3238 	inc	bc
   130F                    3239 00461$:
   130F 69            [ 4] 3240 	ld	l, c
   1310 60            [ 4] 3241 	ld	h, b
   1311 CB 2C         [ 8] 3242 	sra	h
   1313 CB 1D         [ 8] 3243 	rr	l
   1315 CB 2C         [ 8] 3244 	sra	h
   1317 CB 1D         [ 8] 3245 	rr	l
   1319 DD 7E F1      [19] 3246 	ld	a, -15 (ix)
   131C 06 00         [ 7] 3247 	ld	b, #0x00
   131E 95            [ 4] 3248 	sub	a, l
   131F 78            [ 4] 3249 	ld	a,b
   1320 9C            [ 4] 3250 	sbc	a, h
   1321 E2r26r13      [10] 3251 	jp	PO, 01198$
   1324 EE 80         [ 7] 3252 	xor	a, #0x80
   1326                    3253 01198$:
   1326 FAr58r13      [10] 3254 	jp	M,00451$
   1329                    3255 00312$:
                           3256 ;puzzmem.c:384: put_pixel1(offset_x+1,offset_y+y,1);
   1329 DD 7E 05      [19] 3257 	ld	a,5 (ix)
   132C DD 86 F1      [19] 3258 	add	a, -15 (ix)
   132F 4F            [ 4] 3259 	ld	c,a
   1330 C5            [11] 3260 	push	bc
   1331 D5            [11] 3261 	push	de
   1332 3E 01         [ 7] 3262 	ld	a,#0x01
   1334 F5            [11] 3263 	push	af
   1335 33            [ 6] 3264 	inc	sp
   1336 79            [ 4] 3265 	ld	a,c
   1337 F5            [11] 3266 	push	af
   1338 33            [ 6] 3267 	inc	sp
   1339 DD 7E F7      [19] 3268 	ld	a,-9 (ix)
   133C F5            [11] 3269 	push	af
   133D 33            [ 6] 3270 	inc	sp
   133E CDr00r00      [17] 3271 	call	_put_pixel1
   1341 F1            [10] 3272 	pop	af
   1342 33            [ 6] 3273 	inc	sp
   1343 D1            [10] 3274 	pop	de
   1344 C1            [10] 3275 	pop	bc
                           3276 ;puzzmem.c:385: put_pixel1(offset_x+tailleTile-2,offset_y+y,1);
   1345 D5            [11] 3277 	push	de
   1346 3E 01         [ 7] 3278 	ld	a,#0x01
   1348 F5            [11] 3279 	push	af
   1349 33            [ 6] 3280 	inc	sp
   134A 79            [ 4] 3281 	ld	a,c
   134B F5            [11] 3282 	push	af
   134C 33            [ 6] 3283 	inc	sp
   134D DD 7E F5      [19] 3284 	ld	a,-11 (ix)
   1350 F5            [11] 3285 	push	af
   1351 33            [ 6] 3286 	inc	sp
   1352 CDr00r00      [17] 3287 	call	_put_pixel1
   1355 F1            [10] 3288 	pop	af
   1356 33            [ 6] 3289 	inc	sp
   1357 D1            [10] 3290 	pop	de
   1358                    3291 00451$:
                           3292 ;puzzmem.c:382: for (y=1;y<tailleTile-1;y++) {
   1358 DD 34 F1      [23] 3293 	inc	-15 (ix)
   135B C3rCAr12      [10] 3294 	jp	00450$
                           3295 ;puzzmem.c:389: case 21 :
   135E                    3296 00316$:
                           3297 ;puzzmem.c:391: for (x=1;x<tailleTile-1;x++) {
   135E DD 4E 05      [19] 3298 	ld	c,5 (ix)
   1361 0C            [ 4] 3299 	inc	c
   1362 DD 7E 05      [19] 3300 	ld	a,5 (ix)
   1365 DD 86 07      [19] 3301 	add	a, 7 (ix)
   1368 47            [ 4] 3302 	ld	b, a
   1369 05            [ 4] 3303 	dec	b
   136A 05            [ 4] 3304 	dec	b
   136B DD 36 F2 01   [19] 3305 	ld	-14 (ix),#0x01
   136F                    3306 00453$:
   136F DD 5E 07      [19] 3307 	ld	e,7 (ix)
   1372 16 00         [ 7] 3308 	ld	d,#0x00
   1374 7B            [ 4] 3309 	ld	a,e
   1375 C6 FF         [ 7] 3310 	add	a,#0xff
   1377 DD 77 F5      [19] 3311 	ld	-11 (ix),a
   137A 7A            [ 4] 3312 	ld	a,d
   137B CE FF         [ 7] 3313 	adc	a,#0xff
   137D DD 77 F6      [19] 3314 	ld	-10 (ix),a
   1380 DD 7E F2      [19] 3315 	ld	a,-14 (ix)
   1383 DD 77 F8      [19] 3316 	ld	-8 (ix),a
   1386 DD 36 F9 00   [19] 3317 	ld	-7 (ix),#0x00
   138A DD 7E F8      [19] 3318 	ld	a,-8 (ix)
   138D DD 96 F5      [19] 3319 	sub	a, -11 (ix)
   1390 DD 7E F9      [19] 3320 	ld	a,-7 (ix)
   1393 DD 9E F6      [19] 3321 	sbc	a, -10 (ix)
   1396 E2r9Br13      [10] 3322 	jp	PO, 01199$
   1399 EE 80         [ 7] 3323 	xor	a, #0x80
   139B                    3324 01199$:
   139B F2r37r14      [10] 3325 	jp	P,00321$
                           3326 ;puzzmem.c:392: if (x<tailleTile-5 && x%4==(4-mod4)%4) {
   139E 7B            [ 4] 3327 	ld	a,e
   139F C6 FB         [ 7] 3328 	add	a,#0xfb
   13A1 5F            [ 4] 3329 	ld	e,a
   13A2 7A            [ 4] 3330 	ld	a,d
   13A3 CE FF         [ 7] 3331 	adc	a,#0xff
   13A5 57            [ 4] 3332 	ld	d,a
   13A6 DD 7E F8      [19] 3333 	ld	a,-8 (ix)
   13A9 93            [ 4] 3334 	sub	a, e
   13AA DD 7E F9      [19] 3335 	ld	a,-7 (ix)
   13AD 9A            [ 4] 3336 	sbc	a, d
   13AE E2rB3r13      [10] 3337 	jp	PO, 01200$
   13B1 EE 80         [ 7] 3338 	xor	a, #0x80
   13B3                    3339 01200$:
   13B3 F2r0Br14      [10] 3340 	jp	P,00318$
   13B6 DD 7E F2      [19] 3341 	ld	a,-14 (ix)
   13B9 E6 03         [ 7] 3342 	and	a, #0x03
   13BB DD 77 F3      [19] 3343 	ld	-13 (ix),a
   13BE DD 5E F0      [19] 3344 	ld	e,-16 (ix)
   13C1 16 00         [ 7] 3345 	ld	d,#0x00
   13C3 3E 04         [ 7] 3346 	ld	a,#0x04
   13C5 93            [ 4] 3347 	sub	a, e
   13C6 5F            [ 4] 3348 	ld	e,a
   13C7 3E 00         [ 7] 3349 	ld	a,#0x00
   13C9 9A            [ 4] 3350 	sbc	a, d
   13CA 57            [ 4] 3351 	ld	d,a
   13CB C5            [11] 3352 	push	bc
   13CC 21 04 00      [10] 3353 	ld	hl,#0x0004
   13CF E5            [11] 3354 	push	hl
   13D0 D5            [11] 3355 	push	de
   13D1 CDr00r00      [17] 3356 	call	__modsint
   13D4 F1            [10] 3357 	pop	af
   13D5 F1            [10] 3358 	pop	af
   13D6 C1            [10] 3359 	pop	bc
   13D7 DD 7E F3      [19] 3360 	ld	a, -13 (ix)
   13DA 16 00         [ 7] 3361 	ld	d, #0x00
   13DC 95            [ 4] 3362 	sub	a, l
   13DD 20 2C         [12] 3363 	jr	NZ,00318$
   13DF 7A            [ 4] 3364 	ld	a,d
   13E0 94            [ 4] 3365 	sub	a, h
   13E1 20 28         [12] 3366 	jr	NZ,00318$
                           3367 ;puzzmem.c:393: put_pixel_byte1(offset_x+x,offset_y+1,1);
   13E3 DD 7E 04      [19] 3368 	ld	a,4 (ix)
   13E6 DD 86 F2      [19] 3369 	add	a, -14 (ix)
   13E9 5F            [ 4] 3370 	ld	e,a
   13EA C5            [11] 3371 	push	bc
   13EB D5            [11] 3372 	push	de
   13EC 3E 01         [ 7] 3373 	ld	a,#0x01
   13EE F5            [11] 3374 	push	af
   13EF 33            [ 6] 3375 	inc	sp
   13F0 51            [ 4] 3376 	ld	d, c
   13F1 D5            [11] 3377 	push	de
   13F2 CDr00r00      [17] 3378 	call	_put_pixel_byte1
   13F5 F1            [10] 3379 	pop	af
   13F6 33            [ 6] 3380 	inc	sp
   13F7 D1            [10] 3381 	pop	de
   13F8 C1            [10] 3382 	pop	bc
                           3383 ;puzzmem.c:394: put_pixel_byte1(offset_x+x,offset_y+tailleTile-2,1);
   13F9 C5            [11] 3384 	push	bc
   13FA 3E 01         [ 7] 3385 	ld	a,#0x01
   13FC F5            [11] 3386 	push	af
   13FD 33            [ 6] 3387 	inc	sp
   13FE C5            [11] 3388 	push	bc
   13FF 33            [ 6] 3389 	inc	sp
   1400 7B            [ 4] 3390 	ld	a,e
   1401 F5            [11] 3391 	push	af
   1402 33            [ 6] 3392 	inc	sp
   1403 CDr00r00      [17] 3393 	call	_put_pixel_byte1
   1406 F1            [10] 3394 	pop	af
   1407 33            [ 6] 3395 	inc	sp
   1408 C1            [10] 3396 	pop	bc
   1409 18 26         [12] 3397 	jr	00454$
   140B                    3398 00318$:
                           3399 ;puzzmem.c:396: put_pixel1(offset_x+x,offset_y+1,1);
   140B DD 7E 04      [19] 3400 	ld	a,4 (ix)
   140E DD 86 F2      [19] 3401 	add	a, -14 (ix)
   1411 5F            [ 4] 3402 	ld	e,a
   1412 C5            [11] 3403 	push	bc
   1413 D5            [11] 3404 	push	de
   1414 3E 01         [ 7] 3405 	ld	a,#0x01
   1416 F5            [11] 3406 	push	af
   1417 33            [ 6] 3407 	inc	sp
   1418 51            [ 4] 3408 	ld	d, c
   1419 D5            [11] 3409 	push	de
   141A CDr00r00      [17] 3410 	call	_put_pixel1
   141D F1            [10] 3411 	pop	af
   141E 33            [ 6] 3412 	inc	sp
   141F D1            [10] 3413 	pop	de
   1420 C1            [10] 3414 	pop	bc
                           3415 ;puzzmem.c:397: put_pixel1(offset_x+x,offset_y+tailleTile-2,1);
   1421 C5            [11] 3416 	push	bc
   1422 3E 01         [ 7] 3417 	ld	a,#0x01
   1424 F5            [11] 3418 	push	af
   1425 33            [ 6] 3419 	inc	sp
   1426 C5            [11] 3420 	push	bc
   1427 33            [ 6] 3421 	inc	sp
   1428 7B            [ 4] 3422 	ld	a,e
   1429 F5            [11] 3423 	push	af
   142A 33            [ 6] 3424 	inc	sp
   142B CDr00r00      [17] 3425 	call	_put_pixel1
   142E F1            [10] 3426 	pop	af
   142F 33            [ 6] 3427 	inc	sp
   1430 C1            [10] 3428 	pop	bc
   1431                    3429 00454$:
                           3430 ;puzzmem.c:391: for (x=1;x<tailleTile-1;x++) {
   1431 DD 34 F2      [23] 3431 	inc	-14 (ix)
   1434 C3r6Fr13      [10] 3432 	jp	00453$
   1437                    3433 00321$:
                           3434 ;puzzmem.c:400: for (y=1;y<tailleTile-1;y++) {
   1437 DD 4E 04      [19] 3435 	ld	c,4 (ix)
   143A 0C            [ 4] 3436 	inc	c
   143B DD 7E 04      [19] 3437 	ld	a,4 (ix)
   143E DD 86 07      [19] 3438 	add	a, 7 (ix)
   1441 47            [ 4] 3439 	ld	b, a
   1442 05            [ 4] 3440 	dec	b
   1443 05            [ 4] 3441 	dec	b
   1444 1E 01         [ 7] 3442 	ld	e,#0x01
   1446                    3443 00456$:
   1446 6B            [ 4] 3444 	ld	l,e
   1447 26 00         [ 7] 3445 	ld	h,#0x00
   1449 7D            [ 4] 3446 	ld	a,l
   144A DD 96 F5      [19] 3447 	sub	a, -11 (ix)
   144D 7C            [ 4] 3448 	ld	a,h
   144E DD 9E F6      [19] 3449 	sbc	a, -10 (ix)
   1451 E2r56r14      [10] 3450 	jp	PO, 01203$
   1454 EE 80         [ 7] 3451 	xor	a, #0x80
   1456                    3452 01203$:
   1456 F2r84r14      [10] 3453 	jp	P,00323$
                           3454 ;puzzmem.c:401: put_pixel1(offset_x+1,offset_y+y,1);
   1459 DD 7E 05      [19] 3455 	ld	a,5 (ix)
   145C 83            [ 4] 3456 	add	a, e
   145D 57            [ 4] 3457 	ld	d,a
   145E C5            [11] 3458 	push	bc
   145F D5            [11] 3459 	push	de
   1460 3E 01         [ 7] 3460 	ld	a,#0x01
   1462 F5            [11] 3461 	push	af
   1463 33            [ 6] 3462 	inc	sp
   1464 D5            [11] 3463 	push	de
   1465 33            [ 6] 3464 	inc	sp
   1466 79            [ 4] 3465 	ld	a,c
   1467 F5            [11] 3466 	push	af
   1468 33            [ 6] 3467 	inc	sp
   1469 CDr00r00      [17] 3468 	call	_put_pixel1
   146C F1            [10] 3469 	pop	af
   146D 33            [ 6] 3470 	inc	sp
   146E D1            [10] 3471 	pop	de
   146F C1            [10] 3472 	pop	bc
                           3473 ;puzzmem.c:402: put_pixel1(offset_x+tailleTile-2,offset_y+y,1);
   1470 C5            [11] 3474 	push	bc
   1471 D5            [11] 3475 	push	de
   1472 3E 01         [ 7] 3476 	ld	a,#0x01
   1474 F5            [11] 3477 	push	af
   1475 33            [ 6] 3478 	inc	sp
   1476 D5            [11] 3479 	push	de
   1477 33            [ 6] 3480 	inc	sp
   1478 C5            [11] 3481 	push	bc
   1479 33            [ 6] 3482 	inc	sp
   147A CDr00r00      [17] 3483 	call	_put_pixel1
   147D F1            [10] 3484 	pop	af
   147E 33            [ 6] 3485 	inc	sp
   147F D1            [10] 3486 	pop	de
   1480 C1            [10] 3487 	pop	bc
                           3488 ;puzzmem.c:400: for (y=1;y<tailleTile-1;y++) {
   1481 1C            [ 4] 3489 	inc	e
   1482 18 C2         [12] 3490 	jr	00456$
                           3491 ;puzzmem.c:405: }
   1484                    3492 00323$:
                           3493 ;puzzmem.c:406: if (noTile2!=AUCUNE_CASE) {
   1484 DD 7E 08      [19] 3494 	ld	a,8 (ix)
   1487 D6 16         [ 7] 3495 	sub	a, #0x16
   1489 28 18         [12] 3496 	jr	Z,00458$
                           3497 ;puzzmem.c:407: piece(offset_x,offset_y,noTile2,tailleTile,AUCUNE_CASE);
   148B 3E 16         [ 7] 3498 	ld	a,#0x16
   148D F5            [11] 3499 	push	af
   148E 33            [ 6] 3500 	inc	sp
   148F DD 66 07      [19] 3501 	ld	h,7 (ix)
   1492 DD 6E 08      [19] 3502 	ld	l,8 (ix)
   1495 E5            [11] 3503 	push	hl
   1496 DD 66 05      [19] 3504 	ld	h,5 (ix)
   1499 DD 6E 04      [19] 3505 	ld	l,4 (ix)
   149C E5            [11] 3506 	push	hl
   149D CDr00r00      [17] 3507 	call	_piece
   14A0 F1            [10] 3508 	pop	af
   14A1 F1            [10] 3509 	pop	af
   14A2 33            [ 6] 3510 	inc	sp
   14A3                    3511 00458$:
   14A3 DD F9         [10] 3512 	ld	sp, ix
   14A5 DD E1         [14] 3513 	pop	ix
   14A7 C9            [10] 3514 	ret
                           3515 ;puzzmem.c:411: void fillListe1Piece(char * nbPieces,char n,char curseurHaut,char etatSelect,char etatZone,char bordure) {
                           3516 ;	---------------------------------
                           3517 ; Function fillListe1Piece
                           3518 ; ---------------------------------
   14A8                    3519 _fillListe1Piece::
   14A8 DD E5         [15] 3520 	push	ix
   14AA DD 21 00 00   [14] 3521 	ld	ix,#0
   14AE DD 39         [15] 3522 	add	ix,sp
   14B0 F5            [11] 3523 	push	af
   14B1 3B            [ 6] 3524 	dec	sp
                           3525 ;puzzmem.c:413: char offset_x;char offset_y;char secondePiece=AUCUNE_CASE;
   14B2 DD 36 FD 16   [19] 3526 	ld	-3 (ix),#0x16
                           3527 ;puzzmem.c:414: x=n/2;
   14B6 DD 46 06      [19] 3528 	ld	b,6 (ix)
   14B9 CB 38         [ 8] 3529 	srl	b
                           3530 ;puzzmem.c:415: y=n%2;
   14BB DD 7E 06      [19] 3531 	ld	a,6 (ix)
   14BE E6 01         [ 7] 3532 	and	a, #0x01
   14C0 4F            [ 4] 3533 	ld	c,a
                           3534 ;puzzmem.c:417: offset_x=x*(21+3)+2;
   14C1 78            [ 4] 3535 	ld	a,b
   14C2 5F            [ 4] 3536 	ld	e,a
   14C3 87            [ 4] 3537 	add	a, a
   14C4 83            [ 4] 3538 	add	a, e
   14C5 87            [ 4] 3539 	add	a, a
   14C6 87            [ 4] 3540 	add	a, a
   14C7 87            [ 4] 3541 	add	a, a
   14C8 C6 02         [ 7] 3542 	add	a, #0x02
   14CA DD 77 FF      [19] 3543 	ld	-1 (ix),a
                           3544 ;puzzmem.c:418: offset_y=y*(21+ESPACEMENT+2*ESPACEMENT)+ESPACEMENT+ESPACEMENT;
   14CD 79            [ 4] 3545 	ld	a,c
   14CE 87            [ 4] 3546 	add	a, a
   14CF 87            [ 4] 3547 	add	a, a
   14D0 87            [ 4] 3548 	add	a, a
   14D1 87            [ 4] 3549 	add	a, a
   14D2 87            [ 4] 3550 	add	a, a
   14D3 81            [ 4] 3551 	add	a, c
   14D4 C6 08         [ 7] 3552 	add	a, #0x08
   14D6 DD 77 FE      [19] 3553 	ld	-2 (ix),a
                           3554 ;puzzmem.c:419: if (bordure==1) {
   14D9 DD 7E 0A      [19] 3555 	ld	a,10 (ix)
   14DC 3D            [ 4] 3556 	dec	a
   14DD 20 17         [12] 3557 	jr	NZ,00102$
                           3558 ;puzzmem.c:420: piece(offset_x,offset_y,19,21,AUCUNE_CASE); // bordure rouge
   14DF C5            [11] 3559 	push	bc
   14E0 21 15 16      [10] 3560 	ld	hl,#0x1615
   14E3 E5            [11] 3561 	push	hl
   14E4 3E 13         [ 7] 3562 	ld	a,#0x13
   14E6 F5            [11] 3563 	push	af
   14E7 33            [ 6] 3564 	inc	sp
   14E8 DD 66 FE      [19] 3565 	ld	h,-2 (ix)
   14EB DD 6E FF      [19] 3566 	ld	l,-1 (ix)
   14EE E5            [11] 3567 	push	hl
   14EF CDr00r00      [17] 3568 	call	_piece
   14F2 F1            [10] 3569 	pop	af
   14F3 F1            [10] 3570 	pop	af
   14F4 33            [ 6] 3571 	inc	sp
   14F5 C1            [10] 3572 	pop	bc
   14F6                    3573 00102$:
                           3574 ;puzzmem.c:423: locate(2+x*3,5);
   14F6 78            [ 4] 3575 	ld	a,b
   14F7 5F            [ 4] 3576 	ld	e,a
   14F8 87            [ 4] 3577 	add	a, a
   14F9 83            [ 4] 3578 	add	a, e
   14FA 47            [ 4] 3579 	ld	b,a
   14FB 04            [ 4] 3580 	inc	b
   14FC 04            [ 4] 3581 	inc	b
                           3582 ;puzzmem.c:422: if (y==0) {
   14FD 79            [ 4] 3583 	ld	a,c
   14FE B7            [ 4] 3584 	or	a, a
   14FF 20 0C         [12] 3585 	jr	NZ,00104$
                           3586 ;puzzmem.c:423: locate(2+x*3,5);
   1501 3E 05         [ 7] 3587 	ld	a,#0x05
   1503 F5            [11] 3588 	push	af
   1504 33            [ 6] 3589 	inc	sp
   1505 C5            [11] 3590 	push	bc
   1506 33            [ 6] 3591 	inc	sp
   1507 CDr00r00      [17] 3592 	call	_locate
   150A F1            [10] 3593 	pop	af
   150B 18 0A         [12] 3594 	jr	00105$
   150D                    3595 00104$:
                           3596 ;puzzmem.c:425: locate(2+x*3,9);
   150D 3E 09         [ 7] 3597 	ld	a,#0x09
   150F F5            [11] 3598 	push	af
   1510 33            [ 6] 3599 	inc	sp
   1511 C5            [11] 3600 	push	bc
   1512 33            [ 6] 3601 	inc	sp
   1513 CDr00r00      [17] 3602 	call	_locate
   1516 F1            [10] 3603 	pop	af
   1517                    3604 00105$:
                           3605 ;puzzmem.c:427: printf("%c",nbPieces[n]+48); // texte dessous la case : nombre de pices
   1517 DD 7E 04      [19] 3606 	ld	a,4 (ix)
   151A DD 86 06      [19] 3607 	add	a, 6 (ix)
   151D 4F            [ 4] 3608 	ld	c,a
   151E DD 7E 05      [19] 3609 	ld	a,5 (ix)
   1521 CE 00         [ 7] 3610 	adc	a, #0x00
   1523 47            [ 4] 3611 	ld	b,a
   1524 0A            [ 7] 3612 	ld	a,(bc)
   1525 6F            [ 4] 3613 	ld	l,a
   1526 26 00         [ 7] 3614 	ld	h,#0x00
   1528 11 30 00      [10] 3615 	ld	de, #0x0030
   152B 19            [11] 3616 	add	hl, de
   152C C5            [11] 3617 	push	bc
   152D E5            [11] 3618 	push	hl
   152E 21r8Fr15      [10] 3619 	ld	hl,#___str_0
   1531 E5            [11] 3620 	push	hl
   1532 CDr00r00      [17] 3621 	call	_printf
   1535 F1            [10] 3622 	pop	af
   1536 F1            [10] 3623 	pop	af
   1537 C1            [10] 3624 	pop	bc
                           3625 ;puzzmem.c:428: if ((n==curseurHaut) && (etatZone==EN_HAUT)) {
   1538 DD 7E 06      [19] 3626 	ld	a,6 (ix)
   153B DD 96 07      [19] 3627 	sub	a, 7 (ix)
   153E 20 16         [12] 3628 	jr	NZ,00110$
   1540 DD 7E 09      [19] 3629 	ld	a,9 (ix)
   1543 3D            [ 4] 3630 	dec	a
   1544 20 10         [12] 3631 	jr	NZ,00110$
                           3632 ;puzzmem.c:429: if (etatSelect==SELECT_ON) {
   1546 DD 7E 08      [19] 3633 	ld	a,8 (ix)
   1549 3D            [ 4] 3634 	dec	a
   154A 20 06         [12] 3635 	jr	NZ,00107$
                           3636 ;puzzmem.c:430: secondePiece=20;
   154C DD 36 FD 14   [19] 3637 	ld	-3 (ix),#0x14
   1550 18 04         [12] 3638 	jr	00110$
   1552                    3639 00107$:
                           3640 ;puzzmem.c:432: secondePiece=21;
   1552 DD 36 FD 15   [19] 3641 	ld	-3 (ix),#0x15
   1556                    3642 00110$:
                           3643 ;puzzmem.c:436: if (nbPieces[n]>0) {
   1556 0A            [ 7] 3644 	ld	a,(bc)
   1557 B7            [ 4] 3645 	or	a, a
   1558 28 1A         [12] 3646 	jr	Z,00113$
                           3647 ;puzzmem.c:437: piece(offset_x,offset_y,n,21,secondePiece); // la piece
   155A DD 56 FD      [19] 3648 	ld	d, -3 (ix)
   155D 1E 15         [ 7] 3649 	ld	e,#0x15
   155F D5            [11] 3650 	push	de
   1560 DD 66 06      [19] 3651 	ld	h,6 (ix)
   1563 DD 6E FE      [19] 3652 	ld	l,-2 (ix)
   1566 E5            [11] 3653 	push	hl
   1567 DD 7E FF      [19] 3654 	ld	a,-1 (ix)
   156A F5            [11] 3655 	push	af
   156B 33            [ 6] 3656 	inc	sp
   156C CDr00r00      [17] 3657 	call	_piece
   156F F1            [10] 3658 	pop	af
   1570 F1            [10] 3659 	pop	af
   1571 33            [ 6] 3660 	inc	sp
   1572 18 16         [12] 3661 	jr	00115$
   1574                    3662 00113$:
                           3663 ;puzzmem.c:439: piece(offset_x,offset_y,18,21,secondePiece); // case vide
   1574 DD 7E FD      [19] 3664 	ld	a,-3 (ix)
   1577 F5            [11] 3665 	push	af
   1578 33            [ 6] 3666 	inc	sp
   1579 21 12 15      [10] 3667 	ld	hl,#0x1512
   157C E5            [11] 3668 	push	hl
   157D DD 66 FE      [19] 3669 	ld	h,-2 (ix)
   1580 DD 6E FF      [19] 3670 	ld	l,-1 (ix)
   1583 E5            [11] 3671 	push	hl
   1584 CDr00r00      [17] 3672 	call	_piece
   1587 F1            [10] 3673 	pop	af
   1588 F1            [10] 3674 	pop	af
   1589 33            [ 6] 3675 	inc	sp
   158A                    3676 00115$:
   158A DD F9         [10] 3677 	ld	sp, ix
   158C DD E1         [14] 3678 	pop	ix
   158E C9            [10] 3679 	ret
   158F                    3680 ___str_0:
   158F 25 63              3681 	.ascii "%c"
   1591 00                 3682 	.db 0x00
                           3683 ;puzzmem.c:449: void fillListePieces(char * nbPieces,char curseurHaut,char etatSelect,char etatZone) {
                           3684 ;	---------------------------------
                           3685 ; Function fillListePieces
                           3686 ; ---------------------------------
   1592                    3687 _fillListePieces::
   1592 DD E5         [15] 3688 	push	ix
   1594 DD 21 00 00   [14] 3689 	ld	ix,#0
   1598 DD 39         [15] 3690 	add	ix,sp
                           3691 ;puzzmem.c:451: for (n=0;n<18;n++) {
   159A 0E 00         [ 7] 3692 	ld	c,#0x00
   159C                    3693 00102$:
                           3694 ;puzzmem.c:452: fillListe1Piece(nbPieces,n,curseurHaut,etatSelect,etatZone,1);
   159C C5            [11] 3695 	push	bc
   159D 3E 01         [ 7] 3696 	ld	a,#0x01
   159F F5            [11] 3697 	push	af
   15A0 33            [ 6] 3698 	inc	sp
   15A1 DD 66 08      [19] 3699 	ld	h,8 (ix)
   15A4 DD 6E 07      [19] 3700 	ld	l,7 (ix)
   15A7 E5            [11] 3701 	push	hl
   15A8 DD 7E 06      [19] 3702 	ld	a,6 (ix)
   15AB F5            [11] 3703 	push	af
   15AC 33            [ 6] 3704 	inc	sp
   15AD 79            [ 4] 3705 	ld	a,c
   15AE F5            [11] 3706 	push	af
   15AF 33            [ 6] 3707 	inc	sp
   15B0 DD 6E 04      [19] 3708 	ld	l,4 (ix)
   15B3 DD 66 05      [19] 3709 	ld	h,5 (ix)
   15B6 E5            [11] 3710 	push	hl
   15B7 CDrA8r14      [17] 3711 	call	_fillListe1Piece
   15BA 21 07 00      [10] 3712 	ld	hl,#7
   15BD 39            [11] 3713 	add	hl,sp
   15BE F9            [ 6] 3714 	ld	sp,hl
   15BF C1            [10] 3715 	pop	bc
                           3716 ;puzzmem.c:451: for (n=0;n<18;n++) {
   15C0 0C            [ 4] 3717 	inc	c
   15C1 79            [ 4] 3718 	ld	a,c
   15C2 D6 12         [ 7] 3719 	sub	a, #0x12
   15C4 38 D6         [12] 3720 	jr	C,00102$
   15C6 DD E1         [14] 3721 	pop	ix
   15C8 C9            [10] 3722 	ret
                           3723 ;puzzmem.c:466: void fillPreview(char ** preview,char niveauTaille,char niveauNb) {
                           3724 ;	---------------------------------
                           3725 ; Function fillPreview
                           3726 ; ---------------------------------
   15C9                    3727 _fillPreview::
   15C9 DD E5         [15] 3728 	push	ix
   15CB DD 21 00 00   [14] 3729 	ld	ix,#0
   15CF DD 39         [15] 3730 	add	ix,sp
   15D1 21 F9 FF      [10] 3731 	ld	hl,#-7
   15D4 39            [11] 3732 	add	hl,sp
   15D5 F9            [ 6] 3733 	ld	sp,hl
                           3734 ;puzzmem.c:471: piece(offset_x,offset_y,19,105,22); // bordure rouge
   15D6 21 69 16      [10] 3735 	ld	hl,#0x1669
   15D9 E5            [11] 3736 	push	hl
   15DA 21 5D 13      [10] 3737 	ld	hl,#0x135d
   15DD E5            [11] 3738 	push	hl
   15DE 3E 02         [ 7] 3739 	ld	a,#0x02
   15E0 F5            [11] 3740 	push	af
   15E1 33            [ 6] 3741 	inc	sp
   15E2 CDr00r00      [17] 3742 	call	_piece
   15E5 F1            [10] 3743 	pop	af
   15E6 F1            [10] 3744 	pop	af
   15E7 33            [ 6] 3745 	inc	sp
                           3746 ;puzzmem.c:473: for (x=0;x<niveauNb;x=x+1) {
   15E8 DD 36 FA 00   [19] 3747 	ld	-6 (ix),#0x00
   15EC 11 00 00      [10] 3748 	ld	de,#0x0000
   15EF DD 36 FB 00   [19] 3749 	ld	-5 (ix),#0x00
   15F3                    3750 00107$:
   15F3 DD 7E FA      [19] 3751 	ld	a,-6 (ix)
   15F6 DD 96 07      [19] 3752 	sub	a, 7 (ix)
   15F9 30 71         [12] 3753 	jr	NC,00109$
                           3754 ;puzzmem.c:474: for (y=0;y<niveauNb;y=y+1) {
   15FB 21r00r00      [10] 3755 	ld	hl,#_private_preview
   15FE 19            [11] 3756 	add	hl,de
   15FF DD 75 FE      [19] 3757 	ld	-2 (ix),l
   1602 DD 74 FF      [19] 3758 	ld	-1 (ix),h
   1605 DD 7E FB      [19] 3759 	ld	a,-5 (ix)
   1608 C6 02         [ 7] 3760 	add	a, #0x02
   160A DD 77 FD      [19] 3761 	ld	-3 (ix),a
   160D DD 36 F9 00   [19] 3762 	ld	-7 (ix),#0x00
   1611 DD 36 FC 00   [19] 3763 	ld	-4 (ix),#0x00
   1615                    3764 00104$:
   1615 DD 7E F9      [19] 3765 	ld	a,-7 (ix)
   1618 DD 96 07      [19] 3766 	sub	a, 7 (ix)
   161B 30 3D         [12] 3767 	jr	NC,00108$
                           3768 ;puzzmem.c:476: piece(offset_x+x*21,offset_y+y*21,private_preview[x][y],niveauTaille,22); // la piece
   161D DD 7E FE      [19] 3769 	ld	a,-2 (ix)
   1620 DD 86 F9      [19] 3770 	add	a, -7 (ix)
   1623 4F            [ 4] 3771 	ld	c,a
   1624 DD 7E FF      [19] 3772 	ld	a,-1 (ix)
   1627 CE 00         [ 7] 3773 	adc	a, #0x00
   1629 47            [ 4] 3774 	ld	b,a
   162A 0A            [ 7] 3775 	ld	a,(bc)
   162B 4F            [ 4] 3776 	ld	c,a
   162C DD 7E FC      [19] 3777 	ld	a,-4 (ix)
   162F C6 5D         [ 7] 3778 	add	a, #0x5d
   1631 47            [ 4] 3779 	ld	b,a
   1632 D5            [11] 3780 	push	de
   1633 3E 16         [ 7] 3781 	ld	a,#0x16
   1635 F5            [11] 3782 	push	af
   1636 33            [ 6] 3783 	inc	sp
   1637 DD 7E 06      [19] 3784 	ld	a,6 (ix)
   163A F5            [11] 3785 	push	af
   163B 33            [ 6] 3786 	inc	sp
   163C 79            [ 4] 3787 	ld	a,c
   163D F5            [11] 3788 	push	af
   163E 33            [ 6] 3789 	inc	sp
   163F C5            [11] 3790 	push	bc
   1640 33            [ 6] 3791 	inc	sp
   1641 DD 7E FD      [19] 3792 	ld	a,-3 (ix)
   1644 F5            [11] 3793 	push	af
   1645 33            [ 6] 3794 	inc	sp
   1646 CDr00r00      [17] 3795 	call	_piece
   1649 F1            [10] 3796 	pop	af
   164A F1            [10] 3797 	pop	af
   164B 33            [ 6] 3798 	inc	sp
   164C D1            [10] 3799 	pop	de
                           3800 ;puzzmem.c:474: for (y=0;y<niveauNb;y=y+1) {
   164D DD 7E FC      [19] 3801 	ld	a,-4 (ix)
   1650 C6 15         [ 7] 3802 	add	a, #0x15
   1652 DD 77 FC      [19] 3803 	ld	-4 (ix),a
   1655 DD 34 F9      [23] 3804 	inc	-7 (ix)
   1658 18 BB         [12] 3805 	jr	00104$
   165A                    3806 00108$:
                           3807 ;puzzmem.c:473: for (x=0;x<niveauNb;x=x+1) {
   165A 21 07 00      [10] 3808 	ld	hl,#0x0007
   165D 19            [11] 3809 	add	hl,de
   165E EB            [ 4] 3810 	ex	de,hl
   165F DD 7E FB      [19] 3811 	ld	a,-5 (ix)
   1662 C6 15         [ 7] 3812 	add	a, #0x15
   1664 DD 77 FB      [19] 3813 	ld	-5 (ix),a
   1667 DD 34 FA      [23] 3814 	inc	-6 (ix)
   166A 18 87         [12] 3815 	jr	00107$
   166C                    3816 00109$:
   166C DD F9         [10] 3817 	ld	sp, ix
   166E DD E1         [14] 3818 	pop	ix
   1670 C9            [10] 3819 	ret
                           3820 ;puzzmem.c:487: void fill1Grille(char ** grille,char niveauTaille,char niveauNb,char n, char curseurBas,char etatSelect,char etatZone) {
                           3821 ;	---------------------------------
                           3822 ; Function fill1Grille
                           3823 ; ---------------------------------
   1671                    3824 _fill1Grille::
   1671 DD E5         [15] 3825 	push	ix
   1673 DD 21 00 00   [14] 3826 	ld	ix,#0
   1677 DD 39         [15] 3827 	add	ix,sp
   1679 F5            [11] 3828 	push	af
   167A 3B            [ 6] 3829 	dec	sp
                           3830 ;puzzmem.c:488: char offset_x;char offset_y;char x; char y;char secondePiece=AUCUNE_CASE;
   167B DD 36 FD 16   [19] 3831 	ld	-3 (ix),#0x16
                           3832 ;puzzmem.c:491: x=n%niveauNb;
   167F DD 66 07      [19] 3833 	ld	h,7 (ix)
   1682 DD 6E 08      [19] 3834 	ld	l,8 (ix)
   1685 E5            [11] 3835 	push	hl
   1686 CDr00r00      [17] 3836 	call	__moduchar
   1689 F1            [10] 3837 	pop	af
   168A DD 75 FF      [19] 3838 	ld	-1 (ix),l
                           3839 ;puzzmem.c:492: y=n/niveauNb;
   168D DD 66 07      [19] 3840 	ld	h,7 (ix)
   1690 DD 6E 08      [19] 3841 	ld	l,8 (ix)
   1693 E5            [11] 3842 	push	hl
   1694 CDr00r00      [17] 3843 	call	__divuchar
   1697 F1            [10] 3844 	pop	af
   1698 DD 75 FE      [19] 3845 	ld	-2 (ix),l
                           3846 ;puzzmem.c:493: if ((curseurBas==(x+y*niveauNb)) && (etatZone==EN_BAS)) {
   169B DD 56 FF      [19] 3847 	ld	d,-1 (ix)
   169E 0E 00         [ 7] 3848 	ld	c,#0x00
   16A0 D5            [11] 3849 	push	de
   16A1 C5            [11] 3850 	push	bc
   16A2 DD 5E 07      [19] 3851 	ld	e,7 (ix)
   16A5 DD 66 FE      [19] 3852 	ld	h,-2 (ix)
   16A8 2E 00         [ 7] 3853 	ld	l, #0x00
   16AA 55            [ 4] 3854 	ld	d, l
   16AB 06 08         [ 7] 3855 	ld	b, #0x08
   16AD                    3856 00121$:
   16AD 29            [11] 3857 	add	hl,hl
   16AE 30 01         [12] 3858 	jr	NC,00122$
   16B0 19            [11] 3859 	add	hl,de
   16B1                    3860 00122$:
   16B1 10 FA         [13] 3861 	djnz	00121$
   16B3 C1            [10] 3862 	pop	bc
   16B4 D1            [10] 3863 	pop	de
   16B5 5D            [ 4] 3864 	ld	e,l
   16B6 44            [ 4] 3865 	ld	b,h
   16B7 7A            [ 4] 3866 	ld	a,d
   16B8 83            [ 4] 3867 	add	a, e
   16B9 57            [ 4] 3868 	ld	d,a
   16BA 79            [ 4] 3869 	ld	a,c
   16BB 88            [ 4] 3870 	adc	a, b
   16BC 4F            [ 4] 3871 	ld	c,a
   16BD DD 7E 09      [19] 3872 	ld	a, 9 (ix)
   16C0 26 00         [ 7] 3873 	ld	h, #0x00
   16C2 92            [ 4] 3874 	sub	a, d
   16C3 20 1B         [12] 3875 	jr	NZ,00105$
   16C5 7C            [ 4] 3876 	ld	a,h
   16C6 91            [ 4] 3877 	sub	a, c
   16C7 20 17         [12] 3878 	jr	NZ,00105$
   16C9 DD 7E 0B      [19] 3879 	ld	a,11 (ix)
   16CC D6 02         [ 7] 3880 	sub	a, #0x02
   16CE 20 10         [12] 3881 	jr	NZ,00105$
                           3882 ;puzzmem.c:494: if (etatSelect==SELECT_ON) {
   16D0 DD 7E 0A      [19] 3883 	ld	a,10 (ix)
   16D3 3D            [ 4] 3884 	dec	a
   16D4 20 06         [12] 3885 	jr	NZ,00102$
                           3886 ;puzzmem.c:495: secondePiece=20;
   16D6 DD 36 FD 14   [19] 3887 	ld	-3 (ix),#0x14
   16DA 18 04         [12] 3888 	jr	00105$
   16DC                    3889 00102$:
                           3890 ;puzzmem.c:497: secondePiece=21;
   16DC DD 36 FD 15   [19] 3891 	ld	-3 (ix),#0x15
   16E0                    3892 00105$:
                           3893 ;puzzmem.c:500: piece(offset_x+x*21,offset_y+y*21,private_grille[x][y],niveauTaille,secondePiece); // la piece
   16E0 DD 4E FF      [19] 3894 	ld	c,-1 (ix)
   16E3 06 00         [ 7] 3895 	ld	b,#0x00
   16E5 69            [ 4] 3896 	ld	l, c
   16E6 60            [ 4] 3897 	ld	h, b
   16E7 29            [11] 3898 	add	hl, hl
   16E8 09            [11] 3899 	add	hl, bc
   16E9 29            [11] 3900 	add	hl, hl
   16EA 09            [11] 3901 	add	hl, bc
   16EB 01r31r00      [10] 3902 	ld	bc,#_private_grille
   16EE 09            [11] 3903 	add	hl,bc
   16EF 4D            [ 4] 3904 	ld	c,l
   16F0 44            [ 4] 3905 	ld	b,h
   16F1 79            [ 4] 3906 	ld	a,c
   16F2 DD 86 FE      [19] 3907 	add	a, -2 (ix)
   16F5 4F            [ 4] 3908 	ld	c,a
   16F6 78            [ 4] 3909 	ld	a,b
   16F7 CE 00         [ 7] 3910 	adc	a, #0x00
   16F9 47            [ 4] 3911 	ld	b,a
   16FA 0A            [ 7] 3912 	ld	a,(bc)
   16FB 4F            [ 4] 3913 	ld	c,a
   16FC DD 7E FE      [19] 3914 	ld	a,-2 (ix)
   16FF 5F            [ 4] 3915 	ld	e,a
   1700 87            [ 4] 3916 	add	a, a
   1701 87            [ 4] 3917 	add	a, a
   1702 83            [ 4] 3918 	add	a, e
   1703 87            [ 4] 3919 	add	a, a
   1704 87            [ 4] 3920 	add	a, a
   1705 83            [ 4] 3921 	add	a, e
   1706 C6 56         [ 7] 3922 	add	a, #0x56
   1708 47            [ 4] 3923 	ld	b,a
   1709 D5            [11] 3924 	push	de
   170A DD 7E FF      [19] 3925 	ld	a,-1 (ix)
   170D 5F            [ 4] 3926 	ld	e,a
   170E 87            [ 4] 3927 	add	a, a
   170F 87            [ 4] 3928 	add	a, a
   1710 83            [ 4] 3929 	add	a, e
   1711 87            [ 4] 3930 	add	a, a
   1712 87            [ 4] 3931 	add	a, a
   1713 83            [ 4] 3932 	add	a, e
   1714 D1            [10] 3933 	pop	de
   1715 5F            [ 4] 3934 	ld	e,a
   1716 C6 6E         [ 7] 3935 	add	a, #0x6e
   1718 5F            [ 4] 3936 	ld	e,a
   1719 DD 66 FD      [19] 3937 	ld	h,-3 (ix)
   171C DD 6E 06      [19] 3938 	ld	l,6 (ix)
   171F E5            [11] 3939 	push	hl
   1720 79            [ 4] 3940 	ld	a,c
   1721 F5            [11] 3941 	push	af
   1722 33            [ 6] 3942 	inc	sp
   1723 C5            [11] 3943 	push	bc
   1724 33            [ 6] 3944 	inc	sp
   1725 7B            [ 4] 3945 	ld	a,e
   1726 F5            [11] 3946 	push	af
   1727 33            [ 6] 3947 	inc	sp
   1728 CDr00r00      [17] 3948 	call	_piece
   172B DD F9         [10] 3949 	ld	sp,ix
   172D DD E1         [14] 3950 	pop	ix
   172F C9            [10] 3951 	ret
                           3952 ;puzzmem.c:506: void fillSelect(char niveauTaille,char curseurBas,char select,char etatSelect,char etatZone) {
                           3953 ;	---------------------------------
                           3954 ; Function fillSelect
                           3955 ; ---------------------------------
   1730                    3956 _fillSelect::
   1730 DD E5         [15] 3957 	push	ix
   1732 DD 21 00 00   [14] 3958 	ld	ix,#0
   1736 DD 39         [15] 3959 	add	ix,sp
                           3960 ;puzzmem.c:507: char offset_x;char offset_y;char secondePiece=AUCUNE_CASE;
   1738 0E 16         [ 7] 3961 	ld	c,#0x16
                           3962 ;puzzmem.c:510: if ((curseurBas==CURSEUR_BAS_SELECT) && (etatZone==EN_BAS)) {
   173A DD 7E 05      [19] 3963 	ld	a,5 (ix)
   173D D6 31         [ 7] 3964 	sub	a, #0x31
   173F 20 13         [12] 3965 	jr	NZ,00105$
   1741 DD 7E 08      [19] 3966 	ld	a,8 (ix)
   1744 D6 02         [ 7] 3967 	sub	a, #0x02
   1746 20 0C         [12] 3968 	jr	NZ,00105$
                           3969 ;puzzmem.c:511: if (etatSelect==SELECT_ON) {
   1748 DD 7E 07      [19] 3970 	ld	a,7 (ix)
   174B 3D            [ 4] 3971 	dec	a
   174C 20 04         [12] 3972 	jr	NZ,00102$
                           3973 ;puzzmem.c:512: secondePiece=20;
   174E 0E 14         [ 7] 3974 	ld	c,#0x14
   1750 18 02         [12] 3975 	jr	00105$
   1752                    3976 00102$:
                           3977 ;puzzmem.c:514: secondePiece=21;
   1752 0E 15         [ 7] 3978 	ld	c,#0x15
   1754                    3979 00105$:
                           3980 ;puzzmem.c:517: piece(offset_x,offset_y,select,niveauTaille,secondePiece);
   1754 79            [ 4] 3981 	ld	a,c
   1755 F5            [11] 3982 	push	af
   1756 33            [ 6] 3983 	inc	sp
   1757 DD 66 04      [19] 3984 	ld	h,4 (ix)
   175A DD 6E 06      [19] 3985 	ld	l,6 (ix)
   175D E5            [11] 3986 	push	hl
   175E 21 D8 56      [10] 3987 	ld	hl,#0x56d8
   1761 E5            [11] 3988 	push	hl
   1762 CDr00r00      [17] 3989 	call	_piece
   1765 F1            [10] 3990 	pop	af
   1766 F1            [10] 3991 	pop	af
   1767 33            [ 6] 3992 	inc	sp
   1768 DD E1         [14] 3993 	pop	ix
   176A C9            [10] 3994 	ret
                           3995 ;puzzmem.c:529: void fillGrilleEtSelect(char ** grille,char niveauTaille,char niveauNb,char curseurBas,char select,char etatSelect,char etatZone) {
                           3996 ;	---------------------------------
                           3997 ; Function fillGrilleEtSelect
                           3998 ; ---------------------------------
   176B                    3999 _fillGrilleEtSelect::
   176B DD E5         [15] 4000 	push	ix
   176D DD 21 00 00   [14] 4001 	ld	ix,#0
   1771 DD 39         [15] 4002 	add	ix,sp
                           4003 ;puzzmem.c:535: piece(offset_x,offset_y,19,105,AUCUNE_CASE); // bordure rouge
   1773 21 69 16      [10] 4004 	ld	hl,#0x1669
   1776 E5            [11] 4005 	push	hl
   1777 21 56 13      [10] 4006 	ld	hl,#0x1356
   177A E5            [11] 4007 	push	hl
   177B 3E 6E         [ 7] 4008 	ld	a,#0x6e
   177D F5            [11] 4009 	push	af
   177E 33            [ 6] 4010 	inc	sp
   177F CDr00r00      [17] 4011 	call	_piece
   1782 F1            [10] 4012 	pop	af
   1783 F1            [10] 4013 	pop	af
   1784 33            [ 6] 4014 	inc	sp
                           4015 ;puzzmem.c:537: for (n=0;n<niveauNb*niveauNb;n++) {
   1785 DD 5E 07      [19] 4016 	ld	e,7 (ix)
   1788 DD 66 07      [19] 4017 	ld	h,7 (ix)
   178B 2E 00         [ 7] 4018 	ld	l, #0x00
   178D 55            [ 4] 4019 	ld	d, l
   178E 06 08         [ 7] 4020 	ld	b, #0x08
   1790                    4021 00116$:
   1790 29            [11] 4022 	add	hl,hl
   1791 30 01         [12] 4023 	jr	NC,00117$
   1793 19            [11] 4024 	add	hl,de
   1794                    4025 00117$:
   1794 10 FA         [13] 4026 	djnz	00116$
   1796 4D            [ 4] 4027 	ld	c,l
   1797 44            [ 4] 4028 	ld	b,h
   1798 1E 00         [ 7] 4029 	ld	e,#0x00
   179A                    4030 00103$:
   179A 6B            [ 4] 4031 	ld	l,e
   179B 26 00         [ 7] 4032 	ld	h,#0x00
   179D 7D            [ 4] 4033 	ld	a,l
   179E 91            [ 4] 4034 	sub	a, c
   179F 7C            [ 4] 4035 	ld	a,h
   17A0 98            [ 4] 4036 	sbc	a, b
   17A1 E2rA6r17      [10] 4037 	jp	PO, 00118$
   17A4 EE 80         [ 7] 4038 	xor	a, #0x80
   17A6                    4039 00118$:
   17A6 F2rD1r17      [10] 4040 	jp	P,00101$
                           4041 ;puzzmem.c:538: fill1Grille(grille,niveauTaille,niveauNb,n,curseurBas,etatSelect,etatZone);
   17A9 C5            [11] 4042 	push	bc
   17AA D5            [11] 4043 	push	de
   17AB DD 66 0B      [19] 4044 	ld	h,11 (ix)
   17AE DD 6E 0A      [19] 4045 	ld	l,10 (ix)
   17B1 E5            [11] 4046 	push	hl
   17B2 DD 56 08      [19] 4047 	ld	d, 8 (ix)
   17B5 D5            [11] 4048 	push	de
   17B6 DD 66 07      [19] 4049 	ld	h,7 (ix)
   17B9 DD 6E 06      [19] 4050 	ld	l,6 (ix)
   17BC E5            [11] 4051 	push	hl
   17BD DD 6E 04      [19] 4052 	ld	l,4 (ix)
   17C0 DD 66 05      [19] 4053 	ld	h,5 (ix)
   17C3 E5            [11] 4054 	push	hl
   17C4 CDr71r16      [17] 4055 	call	_fill1Grille
   17C7 21 08 00      [10] 4056 	ld	hl,#8
   17CA 39            [11] 4057 	add	hl,sp
   17CB F9            [ 6] 4058 	ld	sp,hl
   17CC D1            [10] 4059 	pop	de
   17CD C1            [10] 4060 	pop	bc
                           4061 ;puzzmem.c:537: for (n=0;n<niveauNb*niveauNb;n++) {
   17CE 1C            [ 4] 4062 	inc	e
   17CF 18 C9         [12] 4063 	jr	00103$
   17D1                    4064 00101$:
                           4065 ;puzzmem.c:544: piece(offset_x,offset_y,19,niveauTaille,AUCUNE_CASE); // bordure rouge
   17D1 3E 16         [ 7] 4066 	ld	a,#0x16
   17D3 F5            [11] 4067 	push	af
   17D4 33            [ 6] 4068 	inc	sp
   17D5 DD 7E 06      [19] 4069 	ld	a,6 (ix)
   17D8 F5            [11] 4070 	push	af
   17D9 33            [ 6] 4071 	inc	sp
   17DA 21 56 13      [10] 4072 	ld	hl,#0x1356
   17DD E5            [11] 4073 	push	hl
   17DE 3E D8         [ 7] 4074 	ld	a,#0xd8
   17E0 F5            [11] 4075 	push	af
   17E1 33            [ 6] 4076 	inc	sp
   17E2 CDr00r00      [17] 4077 	call	_piece
   17E5 F1            [10] 4078 	pop	af
   17E6 F1            [10] 4079 	pop	af
   17E7 33            [ 6] 4080 	inc	sp
                           4081 ;puzzmem.c:545: fillSelect(niveauTaille,curseurBas,select,etatSelect,etatZone);
   17E8 DD 66 0B      [19] 4082 	ld	h,11 (ix)
   17EB DD 6E 0A      [19] 4083 	ld	l,10 (ix)
   17EE E5            [11] 4084 	push	hl
   17EF DD 66 09      [19] 4085 	ld	h,9 (ix)
   17F2 DD 6E 08      [19] 4086 	ld	l,8 (ix)
   17F5 E5            [11] 4087 	push	hl
   17F6 DD 7E 06      [19] 4088 	ld	a,6 (ix)
   17F9 F5            [11] 4089 	push	af
   17FA 33            [ 6] 4090 	inc	sp
   17FB CDr30r17      [17] 4091 	call	_fillSelect
   17FE F1            [10] 4092 	pop	af
   17FF F1            [10] 4093 	pop	af
   1800 33            [ 6] 4094 	inc	sp
   1801 DD E1         [14] 4095 	pop	ix
   1803 C9            [10] 4096 	ret
                           4097 ;puzzmem.c:551: char ** makePreview(char niveauNb) {
                           4098 ;	---------------------------------
                           4099 ; Function makePreview
                           4100 ; ---------------------------------
   1804                    4101 _makePreview::
   1804 DD E5         [15] 4102 	push	ix
                           4103 ;puzzmem.c:554: private_preview[0][0] = 2;
   1806 21r00r00      [10] 4104 	ld	hl,#_private_preview
   1809 36 02         [10] 4105 	ld	(hl),#0x02
                           4106 ;puzzmem.c:555: private_preview[1][0] = 1;
   180B 21r07r00      [10] 4107 	ld	hl,#(_private_preview + 0x0007)
   180E 36 01         [10] 4108 	ld	(hl),#0x01
                           4109 ;puzzmem.c:556: private_preview[2][0] = 1;
   1810 21r0Er00      [10] 4110 	ld	hl,#(_private_preview + 0x000e)
   1813 36 01         [10] 4111 	ld	(hl),#0x01
                           4112 ;puzzmem.c:557: private_preview[3][0] = 1;
   1815 21r15r00      [10] 4113 	ld	hl,#(_private_preview + 0x0015)
   1818 36 01         [10] 4114 	ld	(hl),#0x01
                           4115 ;puzzmem.c:558: private_preview[4][0] = 5;
   181A 21r1Cr00      [10] 4116 	ld	hl,#(_private_preview + 0x001c)
   181D 36 05         [10] 4117 	ld	(hl),#0x05
                           4118 ;puzzmem.c:560: private_preview[0][1] = 3;
   181F 21r01r00      [10] 4119 	ld	hl,#(_private_preview + 0x0001)
   1822 36 03         [10] 4120 	ld	(hl),#0x03
                           4121 ;puzzmem.c:561: private_preview[1][1] = 17;
   1824 21r08r00      [10] 4122 	ld	hl,#(_private_preview + 0x0008)
   1827 36 11         [10] 4123 	ld	(hl),#0x11
                           4124 ;puzzmem.c:562: private_preview[2][1] = 12;
   1829 21r0Fr00      [10] 4125 	ld	hl,#(_private_preview + 0x000f)
   182C 36 0C         [10] 4126 	ld	(hl),#0x0c
                           4127 ;puzzmem.c:563: private_preview[3][1] = 16;
   182E 21r16r00      [10] 4128 	ld	hl,#(_private_preview + 0x0016)
   1831 36 10         [10] 4129 	ld	(hl),#0x10
                           4130 ;puzzmem.c:564: private_preview[4][1] = 4;
   1833 21r1Dr00      [10] 4131 	ld	hl,#(_private_preview + 0x001d)
   1836 36 04         [10] 4132 	ld	(hl),#0x04
                           4133 ;puzzmem.c:566: private_preview[0][2] = 1;
   1838 21r02r00      [10] 4134 	ld	hl,#(_private_preview + 0x0002)
   183B 36 01         [10] 4135 	ld	(hl),#0x01
                           4136 ;puzzmem.c:567: private_preview[1][2] = 12;
   183D 21r09r00      [10] 4137 	ld	hl,#(_private_preview + 0x0009)
   1840 36 0C         [10] 4138 	ld	(hl),#0x0c
                           4139 ;puzzmem.c:568: private_preview[2][2] = 12;
   1842 21r10r00      [10] 4140 	ld	hl,#(_private_preview + 0x0010)
   1845 36 0C         [10] 4141 	ld	(hl),#0x0c
                           4142 ;puzzmem.c:569: private_preview[3][2] = 1;
   1847 21r17r00      [10] 4143 	ld	hl,#(_private_preview + 0x0017)
   184A 36 01         [10] 4144 	ld	(hl),#0x01
                           4145 ;puzzmem.c:570: private_preview[4][2] = 1;
   184C 21r1Er00      [10] 4146 	ld	hl,#(_private_preview + 0x001e)
   184F 36 01         [10] 4147 	ld	(hl),#0x01
                           4148 ;puzzmem.c:572: private_preview[0][3] = 9;
   1851 21r03r00      [10] 4149 	ld	hl,#(_private_preview + 0x0003)
   1854 36 09         [10] 4150 	ld	(hl),#0x09
                           4151 ;puzzmem.c:573: private_preview[1][3] = 9;
   1856 21r0Ar00      [10] 4152 	ld	hl,#(_private_preview + 0x000a)
   1859 36 09         [10] 4153 	ld	(hl),#0x09
                           4154 ;puzzmem.c:574: private_preview[2][3] = 9;
   185B 21r11r00      [10] 4155 	ld	hl,#(_private_preview + 0x0011)
   185E 36 09         [10] 4156 	ld	(hl),#0x09
                           4157 ;puzzmem.c:575: private_preview[3][3] = 9;
   1860 21r18r00      [10] 4158 	ld	hl,#(_private_preview + 0x0018)
   1863 36 09         [10] 4159 	ld	(hl),#0x09
                           4160 ;puzzmem.c:576: private_preview[4][3] = 9;
   1865 21r1Fr00      [10] 4161 	ld	hl,#(_private_preview + 0x001f)
   1868 36 09         [10] 4162 	ld	(hl),#0x09
                           4163 ;puzzmem.c:578: private_preview[0][4] = 2;
   186A 21r04r00      [10] 4164 	ld	hl,#(_private_preview + 0x0004)
   186D 36 02         [10] 4165 	ld	(hl),#0x02
                           4166 ;puzzmem.c:579: private_preview[1][4] = 2;
   186F 21r0Br00      [10] 4167 	ld	hl,#(_private_preview + 0x000b)
   1872 36 02         [10] 4168 	ld	(hl),#0x02
                           4169 ;puzzmem.c:580: private_preview[2][4] = 2;
   1874 21r12r00      [10] 4170 	ld	hl,#(_private_preview + 0x0012)
   1877 36 02         [10] 4171 	ld	(hl),#0x02
                           4172 ;puzzmem.c:581: private_preview[3][4] = 2;
   1879 21r19r00      [10] 4173 	ld	hl,#(_private_preview + 0x0019)
   187C 36 02         [10] 4174 	ld	(hl),#0x02
                           4175 ;puzzmem.c:582: private_preview[4][4] = 2;
   187E 21r20r00      [10] 4176 	ld	hl,#(_private_preview + 0x0020)
   1881 36 02         [10] 4177 	ld	(hl),#0x02
                           4178 ;puzzmem.c:584: return private_preview;
   1883 21r00r00      [10] 4179 	ld	hl,#_private_preview
   1886 DD E1         [14] 4180 	pop	ix
   1888 C9            [10] 4181 	ret
                           4182 ;puzzmem.c:587: char ** newEmptyGrille() {
                           4183 ;	---------------------------------
                           4184 ; Function newEmptyGrille
                           4185 ; ---------------------------------
   1889                    4186 _newEmptyGrille::
   1889 DD E5         [15] 4187 	push	ix
   188B DD 21 00 00   [14] 4188 	ld	ix,#0
   188F DD 39         [15] 4189 	add	ix,sp
   1891 F5            [11] 4190 	push	af
   1892 F5            [11] 4191 	push	af
                           4192 ;puzzmem.c:589: for (x=0;x<7;x=x+1) {
   1893 DD 36 FD 00   [19] 4193 	ld	-3 (ix),#0x00
   1897 11 00 00      [10] 4194 	ld	de,#0x0000
                           4195 ;puzzmem.c:590: for (y=0;y<7;y=y+1) {
   189A                    4196 00109$:
   189A 21r31r00      [10] 4197 	ld	hl,#_private_grille
   189D 19            [11] 4198 	add	hl,de
   189E DD 75 FE      [19] 4199 	ld	-2 (ix),l
   18A1 DD 74 FF      [19] 4200 	ld	-1 (ix),h
   18A4 DD 36 FC 00   [19] 4201 	ld	-4 (ix),#0x00
   18A8                    4202 00103$:
                           4203 ;puzzmem.c:591: private_grille[x][y]=CASE_VIDE;
   18A8 DD 7E FE      [19] 4204 	ld	a,-2 (ix)
   18AB DD 86 FC      [19] 4205 	add	a, -4 (ix)
   18AE 4F            [ 4] 4206 	ld	c,a
   18AF DD 7E FF      [19] 4207 	ld	a,-1 (ix)
   18B2 CE 00         [ 7] 4208 	adc	a, #0x00
   18B4 47            [ 4] 4209 	ld	b,a
   18B5 3E 12         [ 7] 4210 	ld	a,#0x12
   18B7 02            [ 7] 4211 	ld	(bc),a
                           4212 ;puzzmem.c:590: for (y=0;y<7;y=y+1) {
   18B8 DD 34 FC      [23] 4213 	inc	-4 (ix)
   18BB DD 7E FC      [19] 4214 	ld	a,-4 (ix)
   18BE D6 07         [ 7] 4215 	sub	a, #0x07
   18C0 38 E6         [12] 4216 	jr	C,00103$
                           4217 ;puzzmem.c:589: for (x=0;x<7;x=x+1) {
   18C2 21 07 00      [10] 4218 	ld	hl,#0x0007
   18C5 19            [11] 4219 	add	hl,de
   18C6 EB            [ 4] 4220 	ex	de,hl
   18C7 DD 34 FD      [23] 4221 	inc	-3 (ix)
   18CA DD 7E FD      [19] 4222 	ld	a,-3 (ix)
   18CD D6 07         [ 7] 4223 	sub	a, #0x07
   18CF 38 C9         [12] 4224 	jr	C,00109$
                           4225 ;puzzmem.c:594: return (char **)private_grille;
   18D1 21r31r00      [10] 4226 	ld	hl,#_private_grille
   18D4 DD F9         [10] 4227 	ld	sp, ix
   18D6 DD E1         [14] 4228 	pop	ix
   18D8 C9            [10] 4229 	ret
                           4230 ;puzzmem.c:598: char * computeNbPiece(char ** preview, char niveauNb) {
                           4231 ;	---------------------------------
                           4232 ; Function computeNbPiece
                           4233 ; ---------------------------------
   18D9                    4234 _computeNbPiece::
   18D9 DD E5         [15] 4235 	push	ix
   18DB DD 21 00 00   [14] 4236 	ld	ix,#0
   18DF DD 39         [15] 4237 	add	ix,sp
   18E1 F5            [11] 4238 	push	af
   18E2 F5            [11] 4239 	push	af
                           4240 ;puzzmem.c:600: for (x=0;x<18;x=x+1) {
   18E3 0E 00         [ 7] 4241 	ld	c,#0x00
   18E5                    4242 00104$:
                           4243 ;puzzmem.c:601: private_nbPieces[x]=0;
   18E5 3Er62         [ 7] 4244 	ld	a,#<(_private_nbPieces)
   18E7 81            [ 4] 4245 	add	a, c
   18E8 5F            [ 4] 4246 	ld	e,a
   18E9 3Es00         [ 7] 4247 	ld	a,#>(_private_nbPieces)
   18EB CE 00         [ 7] 4248 	adc	a, #0x00
   18ED 57            [ 4] 4249 	ld	d,a
   18EE AF            [ 4] 4250 	xor	a, a
   18EF 12            [ 7] 4251 	ld	(de),a
                           4252 ;puzzmem.c:600: for (x=0;x<18;x=x+1) {
   18F0 0C            [ 4] 4253 	inc	c
   18F1 79            [ 4] 4254 	ld	a,c
   18F2 D6 12         [ 7] 4255 	sub	a, #0x12
   18F4 38 EF         [12] 4256 	jr	C,00104$
                           4257 ;puzzmem.c:603: for (x=0;x<niveauNb;x=x+1) {
   18F6 DD 36 FD 00   [19] 4258 	ld	-3 (ix),#0x00
   18FA 11 00 00      [10] 4259 	ld	de,#0x0000
   18FD                    4260 00110$:
   18FD DD 7E FD      [19] 4261 	ld	a,-3 (ix)
   1900 DD 96 06      [19] 4262 	sub	a, 6 (ix)
   1903 30 3E         [12] 4263 	jr	NC,00103$
                           4264 ;puzzmem.c:604: for (y=0;y<niveauNb;y=y+1) {
   1905 21r00r00      [10] 4265 	ld	hl,#_private_preview
   1908 19            [11] 4266 	add	hl,de
   1909 DD 75 FE      [19] 4267 	ld	-2 (ix),l
   190C DD 74 FF      [19] 4268 	ld	-1 (ix),h
   190F DD 36 FC 00   [19] 4269 	ld	-4 (ix),#0x00
   1913                    4270 00107$:
   1913 DD 7E FC      [19] 4271 	ld	a,-4 (ix)
   1916 DD 96 06      [19] 4272 	sub	a, 6 (ix)
   1919 30 1E         [12] 4273 	jr	NC,00111$
                           4274 ;puzzmem.c:606: private_nbPieces[private_preview[x][y]]=private_nbPieces[private_preview[x][y]]+1;
   191B DD 7E FE      [19] 4275 	ld	a,-2 (ix)
   191E DD 86 FC      [19] 4276 	add	a, -4 (ix)
   1921 4F            [ 4] 4277 	ld	c,a
   1922 DD 7E FF      [19] 4278 	ld	a,-1 (ix)
   1925 CE 00         [ 7] 4279 	adc	a, #0x00
   1927 47            [ 4] 4280 	ld	b,a
   1928 0A            [ 7] 4281 	ld	a,(bc)
   1929 C6r62         [ 7] 4282 	add	a,#<(_private_nbPieces)
   192B 4F            [ 4] 4283 	ld	c,a
   192C 3Es00         [ 7] 4284 	ld	a,#>(_private_nbPieces)
   192E CE 00         [ 7] 4285 	adc	a, #0x00
   1930 47            [ 4] 4286 	ld	b,a
   1931 0A            [ 7] 4287 	ld	a,(bc)
   1932 3C            [ 4] 4288 	inc	a
   1933 02            [ 7] 4289 	ld	(bc),a
                           4290 ;puzzmem.c:604: for (y=0;y<niveauNb;y=y+1) {
   1934 DD 34 FC      [23] 4291 	inc	-4 (ix)
   1937 18 DA         [12] 4292 	jr	00107$
   1939                    4293 00111$:
                           4294 ;puzzmem.c:603: for (x=0;x<niveauNb;x=x+1) {
   1939 21 07 00      [10] 4295 	ld	hl,#0x0007
   193C 19            [11] 4296 	add	hl,de
   193D EB            [ 4] 4297 	ex	de,hl
   193E DD 34 FD      [23] 4298 	inc	-3 (ix)
   1941 18 BA         [12] 4299 	jr	00110$
   1943                    4300 00103$:
                           4301 ;puzzmem.c:609: return (char *)private_nbPieces;
   1943 21r62r00      [10] 4302 	ld	hl,#_private_nbPieces
   1946 DD F9         [10] 4303 	ld	sp, ix
   1948 DD E1         [14] 4304 	pop	ix
   194A C9            [10] 4305 	ret
                           4306 ;puzzmem.c:629: void main(void)
                           4307 ;	---------------------------------
                           4308 ; Function main
                           4309 ; ---------------------------------
   194B                    4310 _main::
   194B DD E5         [15] 4311 	push	ix
   194D DD 21 00 00   [14] 4312 	ld	ix,#0
   1951 DD 39         [15] 4313 	add	ix,sp
   1953 21 F2 FF      [10] 4314 	ld	hl,#-14
   1956 39            [11] 4315 	add	hl,sp
   1957 F9            [ 6] 4316 	ld	sp,hl
                           4317 ;puzzmem.c:638: mode(1);
   1958 3E 01         [ 7] 4318 	ld	a,#0x01
   195A F5            [11] 4319 	push	af
   195B 33            [ 6] 4320 	inc	sp
   195C CDr00r00      [17] 4321 	call	_mode
   195F 33            [ 6] 4322 	inc	sp
                           4323 ;puzzmem.c:639: set_palette(puzzmem_palette);
   1960 21rDDr25      [10] 4324 	ld	hl,#_puzzmem_palette
   1963 E5            [11] 4325 	push	hl
   1964 CDr00r00      [17] 4326 	call	_set_palette
                           4327 ;puzzmem.c:643: put_frame(vram(45,0),80,200,bluegirl);
   1967 21r00r00      [10] 4328 	ld	hl, #_bluegirl
   196A E3            [19] 4329 	ex	(sp),hl
   196B 21 50 C8      [10] 4330 	ld	hl,#0xc850
   196E E5            [11] 4331 	push	hl
   196F 21 2D C0      [10] 4332 	ld	hl,#0xc02d
   1972 E5            [11] 4333 	push	hl
   1973 CDr00r00      [17] 4334 	call	_put_frame
   1976 21 06 00      [10] 4335 	ld	hl,#6
   1979 39            [11] 4336 	add	hl,sp
   197A F9            [ 6] 4337 	ld	sp,hl
                           4338 ;puzzmem.c:656: niveauNb=5;
   197B DD 36 F8 05   [19] 4339 	ld	-8 (ix),#0x05
                           4340 ;puzzmem.c:657: niveauTaille=21;
   197F DD 36 F7 15   [19] 4341 	ld	-9 (ix),#0x15
                           4342 ;puzzmem.c:660: curseurHaut=0;
   1983 DD 36 FF 00   [19] 4343 	ld	-1 (ix),#0x00
                           4344 ;puzzmem.c:661: curseurHautOld=0;
   1987 DD 36 FA 00   [19] 4345 	ld	-6 (ix),#0x00
                           4346 ;puzzmem.c:662: curseurBas=0;
   198B DD 36 FE 00   [19] 4347 	ld	-2 (ix),#0x00
                           4348 ;puzzmem.c:663: curseurBasOld=0;
   198F DD 36 F9 00   [19] 4349 	ld	-7 (ix),#0x00
                           4350 ;puzzmem.c:664: etatSelect=SELECT_OFF;
   1993 DD 36 FD 00   [19] 4351 	ld	-3 (ix),#0x00
                           4352 ;puzzmem.c:665: etatZone=EN_BAS;
   1997 DD 36 FC 02   [19] 4353 	ld	-4 (ix),#0x02
                           4354 ;puzzmem.c:668: preview=makePreview(niveauNb);
   199B DD 7E F8      [19] 4355 	ld	a,-8 (ix)
   199E F5            [11] 4356 	push	af
   199F 33            [ 6] 4357 	inc	sp
   19A0 CDr04r18      [17] 4358 	call	_makePreview
   19A3 33            [ 6] 4359 	inc	sp
   19A4 4D            [ 4] 4360 	ld	c,l
   19A5 44            [ 4] 4361 	ld	b,h
   19A6 ED 43r76r00   [20] 4362 	ld	(_preview),bc
                           4363 ;puzzmem.c:669: nbPieces=computeNbPiece(preview,niveauNb);
   19AA DD 7E F8      [19] 4364 	ld	a,-8 (ix)
   19AD F5            [11] 4365 	push	af
   19AE 33            [ 6] 4366 	inc	sp
   19AF 2Ar76r00      [16] 4367 	ld	hl,(_preview)
   19B2 E5            [11] 4368 	push	hl
   19B3 CDrD9r18      [17] 4369 	call	_computeNbPiece
   19B6 F1            [10] 4370 	pop	af
   19B7 33            [ 6] 4371 	inc	sp
   19B8 4D            [ 4] 4372 	ld	c,l
   19B9 44            [ 4] 4373 	ld	b,h
   19BA ED 43r74r00   [20] 4374 	ld	(_nbPieces),bc
                           4375 ;puzzmem.c:670: grille=newEmptyGrille(); // rempli avec des CASE_VIDE
   19BE CDr89r18      [17] 4376 	call	_newEmptyGrille
   19C1 4D            [ 4] 4377 	ld	c,l
   19C2 44            [ 4] 4378 	ld	b,h
   19C3 ED 43r78r00   [20] 4379 	ld	(_grille),bc
                           4380 ;puzzmem.c:671: select=CASE_VIDE;
   19C7 21r7Ar00      [10] 4381 	ld	hl,#_select + 0
   19CA 36 12         [10] 4382 	ld	(hl), #0x12
                           4383 ;puzzmem.c:677: vsync();
   19CC CDr00r00      [17] 4384 	call	_vsync
                           4385 ;puzzmem.c:678: fillListePieces(nbPieces,curseurHaut,etatSelect,etatZone);
   19CF DD 66 FC      [19] 4386 	ld	h,-4 (ix)
   19D2 DD 6E FD      [19] 4387 	ld	l,-3 (ix)
   19D5 E5            [11] 4388 	push	hl
   19D6 DD 7E FF      [19] 4389 	ld	a,-1 (ix)
   19D9 F5            [11] 4390 	push	af
   19DA 33            [ 6] 4391 	inc	sp
   19DB 2Ar74r00      [16] 4392 	ld	hl,(_nbPieces)
   19DE E5            [11] 4393 	push	hl
   19DF CDr92r15      [17] 4394 	call	_fillListePieces
   19E2 F1            [10] 4395 	pop	af
   19E3 F1            [10] 4396 	pop	af
   19E4 33            [ 6] 4397 	inc	sp
                           4398 ;puzzmem.c:679: fillPreview(preview,niveauTaille,niveauNb);
   19E5 DD 66 F8      [19] 4399 	ld	h,-8 (ix)
   19E8 DD 6E F7      [19] 4400 	ld	l,-9 (ix)
   19EB E5            [11] 4401 	push	hl
   19EC 2Ar76r00      [16] 4402 	ld	hl,(_preview)
   19EF E5            [11] 4403 	push	hl
   19F0 CDrC9r15      [17] 4404 	call	_fillPreview
   19F3 F1            [10] 4405 	pop	af
   19F4 F1            [10] 4406 	pop	af
                           4407 ;puzzmem.c:680: fillGrilleEtSelect(grille,niveauTaille,niveauNb,curseurBas,select,etatSelect,etatZone);
   19F5 DD 66 FC      [19] 4408 	ld	h,-4 (ix)
   19F8 DD 6E FD      [19] 4409 	ld	l,-3 (ix)
   19FB E5            [11] 4410 	push	hl
   19FC 3Ar7Ar00      [13] 4411 	ld	a,(_select)
   19FF F5            [11] 4412 	push	af
   1A00 33            [ 6] 4413 	inc	sp
   1A01 DD 66 FE      [19] 4414 	ld	h,-2 (ix)
   1A04 DD 6E F8      [19] 4415 	ld	l,-8 (ix)
   1A07 E5            [11] 4416 	push	hl
   1A08 DD 7E F7      [19] 4417 	ld	a,-9 (ix)
   1A0B F5            [11] 4418 	push	af
   1A0C 33            [ 6] 4419 	inc	sp
   1A0D 2Ar78r00      [16] 4420 	ld	hl,(_grille)
   1A10 E5            [11] 4421 	push	hl
   1A11 CDr6Br17      [17] 4422 	call	_fillGrilleEtSelect
   1A14 21 08 00      [10] 4423 	ld	hl,#8
   1A17 39            [11] 4424 	add	hl,sp
   1A18 F9            [ 6] 4425 	ld	sp,hl
                           4426 ;puzzmem.c:682: while (1) {
   1A19                    4427 00291$:
                           4428 ;puzzmem.c:683: one_key=0;
   1A19 DD 36 F2 00   [19] 4429 	ld	-14 (ix),#0x00
                           4430 ;puzzmem.c:684: check_controller();
   1A1D CDr00r00      [17] 4431 	call	_check_controller
                           4432 ;puzzmem.c:685: touche=0;
   1A20 DD 36 FB 00   [19] 4433 	ld	-5 (ix),#0x00
                           4434 ;puzzmem.c:686: if (get_key(Key_CursorUp) || get_key(Key_Joy1Up)) {
   1A24 AF            [ 4] 4435 	xor	a, a
   1A25 F5            [11] 4436 	push	af
   1A26 33            [ 6] 4437 	inc	sp
   1A27 CDr00r00      [17] 4438 	call	_get_key
   1A2A 33            [ 6] 4439 	inc	sp
   1A2B 7D            [ 4] 4440 	ld	a,l
   1A2C B7            [ 4] 4441 	or	a, a
   1A2D 20 0C         [12] 4442 	jr	NZ,00101$
   1A2F 3E 48         [ 7] 4443 	ld	a,#0x48
   1A31 F5            [11] 4444 	push	af
   1A32 33            [ 6] 4445 	inc	sp
   1A33 CDr00r00      [17] 4446 	call	_get_key
   1A36 33            [ 6] 4447 	inc	sp
   1A37 7D            [ 4] 4448 	ld	a,l
   1A38 B7            [ 4] 4449 	or	a, a
   1A39 28 04         [12] 4450 	jr	Z,00102$
   1A3B                    4451 00101$:
                           4452 ;puzzmem.c:687: touche=TOUCHE_HAUT;
   1A3B DD 36 FB 01   [19] 4453 	ld	-5 (ix),#0x01
   1A3F                    4454 00102$:
                           4455 ;puzzmem.c:689: if (get_key(Key_CursorDown) || get_key(Key_Joy1Down)) {
   1A3F 3E 02         [ 7] 4456 	ld	a,#0x02
   1A41 F5            [11] 4457 	push	af
   1A42 33            [ 6] 4458 	inc	sp
   1A43 CDr00r00      [17] 4459 	call	_get_key
   1A46 33            [ 6] 4460 	inc	sp
   1A47 7D            [ 4] 4461 	ld	a,l
   1A48 B7            [ 4] 4462 	or	a, a
   1A49 20 0C         [12] 4463 	jr	NZ,00106$
   1A4B 3E 49         [ 7] 4464 	ld	a,#0x49
   1A4D F5            [11] 4465 	push	af
   1A4E 33            [ 6] 4466 	inc	sp
   1A4F CDr00r00      [17] 4467 	call	_get_key
   1A52 33            [ 6] 4468 	inc	sp
   1A53 7D            [ 4] 4469 	ld	a,l
   1A54 B7            [ 4] 4470 	or	a, a
   1A55 28 0A         [12] 4471 	jr	Z,00107$
   1A57                    4472 00106$:
                           4473 ;puzzmem.c:690: if (touche!=0) continue;
   1A57 DD 7E FB      [19] 4474 	ld	a,-5 (ix)
   1A5A B7            [ 4] 4475 	or	a, a
   1A5B 20 BC         [12] 4476 	jr	NZ,00291$
                           4477 ;puzzmem.c:691: touche=TOUCHE_BAS;
   1A5D DD 36 FB 02   [19] 4478 	ld	-5 (ix),#0x02
   1A61                    4479 00107$:
                           4480 ;puzzmem.c:693: if (get_key(Key_CursorRight) || get_key(Key_Joy1Right)) {
   1A61 3E 01         [ 7] 4481 	ld	a,#0x01
   1A63 F5            [11] 4482 	push	af
   1A64 33            [ 6] 4483 	inc	sp
   1A65 CDr00r00      [17] 4484 	call	_get_key
   1A68 33            [ 6] 4485 	inc	sp
   1A69 7D            [ 4] 4486 	ld	a,l
   1A6A B7            [ 4] 4487 	or	a, a
   1A6B 20 0C         [12] 4488 	jr	NZ,00111$
   1A6D 3E 4B         [ 7] 4489 	ld	a,#0x4b
   1A6F F5            [11] 4490 	push	af
   1A70 33            [ 6] 4491 	inc	sp
   1A71 CDr00r00      [17] 4492 	call	_get_key
   1A74 33            [ 6] 4493 	inc	sp
   1A75 7D            [ 4] 4494 	ld	a,l
   1A76 B7            [ 4] 4495 	or	a, a
   1A77 28 0A         [12] 4496 	jr	Z,00112$
   1A79                    4497 00111$:
                           4498 ;puzzmem.c:694: if (touche!=0) continue;
   1A79 DD 7E FB      [19] 4499 	ld	a,-5 (ix)
   1A7C B7            [ 4] 4500 	or	a, a
   1A7D 20 9A         [12] 4501 	jr	NZ,00291$
                           4502 ;puzzmem.c:695: touche=TOUCHE_DROITE;
   1A7F DD 36 FB 03   [19] 4503 	ld	-5 (ix),#0x03
   1A83                    4504 00112$:
                           4505 ;puzzmem.c:697: if (get_key(Key_CursorLeft) || get_key(Key_Joy1Left)) {
   1A83 3E 08         [ 7] 4506 	ld	a,#0x08
   1A85 F5            [11] 4507 	push	af
   1A86 33            [ 6] 4508 	inc	sp
   1A87 CDr00r00      [17] 4509 	call	_get_key
   1A8A 33            [ 6] 4510 	inc	sp
   1A8B 7D            [ 4] 4511 	ld	a,l
   1A8C B7            [ 4] 4512 	or	a, a
   1A8D 20 0C         [12] 4513 	jr	NZ,00116$
   1A8F 3E 4A         [ 7] 4514 	ld	a,#0x4a
   1A91 F5            [11] 4515 	push	af
   1A92 33            [ 6] 4516 	inc	sp
   1A93 CDr00r00      [17] 4517 	call	_get_key
   1A96 33            [ 6] 4518 	inc	sp
   1A97 7D            [ 4] 4519 	ld	a,l
   1A98 B7            [ 4] 4520 	or	a, a
   1A99 28 0B         [12] 4521 	jr	Z,00117$
   1A9B                    4522 00116$:
                           4523 ;puzzmem.c:698: if (touche!=0) continue;
   1A9B DD 7E FB      [19] 4524 	ld	a,-5 (ix)
   1A9E B7            [ 4] 4525 	or	a, a
   1A9F C2r19r1A      [10] 4526 	jp	NZ,00291$
                           4527 ;puzzmem.c:699: touche=TOUCHE_GAUCHE;
   1AA2 DD 36 FB 04   [19] 4528 	ld	-5 (ix),#0x04
   1AA6                    4529 00117$:
                           4530 ;puzzmem.c:701: if (get_key(Key_Space) || get_key(Key_Joy1Fire1)) {
   1AA6 3E 2F         [ 7] 4531 	ld	a,#0x2f
   1AA8 F5            [11] 4532 	push	af
   1AA9 33            [ 6] 4533 	inc	sp
   1AAA CDr00r00      [17] 4534 	call	_get_key
   1AAD 33            [ 6] 4535 	inc	sp
   1AAE 7D            [ 4] 4536 	ld	a,l
   1AAF B7            [ 4] 4537 	or	a, a
   1AB0 20 0C         [12] 4538 	jr	NZ,00121$
   1AB2 3E 4C         [ 7] 4539 	ld	a,#0x4c
   1AB4 F5            [11] 4540 	push	af
   1AB5 33            [ 6] 4541 	inc	sp
   1AB6 CDr00r00      [17] 4542 	call	_get_key
   1AB9 33            [ 6] 4543 	inc	sp
   1ABA 7D            [ 4] 4544 	ld	a,l
   1ABB B7            [ 4] 4545 	or	a, a
   1ABC 28 0B         [12] 4546 	jr	Z,00122$
   1ABE                    4547 00121$:
                           4548 ;puzzmem.c:702: if (touche!=0) continue;
   1ABE DD 7E FB      [19] 4549 	ld	a,-5 (ix)
   1AC1 B7            [ 4] 4550 	or	a, a
   1AC2 C2r19r1A      [10] 4551 	jp	NZ,00291$
                           4552 ;puzzmem.c:703: touche=TOUCHE_ESPACE;
   1AC5 DD 36 FB 05   [19] 4553 	ld	-5 (ix),#0x05
   1AC9                    4554 00122$:
                           4555 ;puzzmem.c:705: if (get_key(Key_Return) || get_key(Key_Joy1Fire2) || get_key(Key_Joy1Fire3)) {
   1AC9 3E 12         [ 7] 4556 	ld	a,#0x12
   1ACB F5            [11] 4557 	push	af
   1ACC 33            [ 6] 4558 	inc	sp
   1ACD CDr00r00      [17] 4559 	call	_get_key
   1AD0 33            [ 6] 4560 	inc	sp
   1AD1 7D            [ 4] 4561 	ld	a,l
   1AD2 B7            [ 4] 4562 	or	a, a
   1AD3 20 18         [12] 4563 	jr	NZ,00126$
   1AD5 3E 4D         [ 7] 4564 	ld	a,#0x4d
   1AD7 F5            [11] 4565 	push	af
   1AD8 33            [ 6] 4566 	inc	sp
   1AD9 CDr00r00      [17] 4567 	call	_get_key
   1ADC 33            [ 6] 4568 	inc	sp
   1ADD 7D            [ 4] 4569 	ld	a,l
   1ADE B7            [ 4] 4570 	or	a, a
   1ADF 20 0C         [12] 4571 	jr	NZ,00126$
   1AE1 3E 4E         [ 7] 4572 	ld	a,#0x4e
   1AE3 F5            [11] 4573 	push	af
   1AE4 33            [ 6] 4574 	inc	sp
   1AE5 CDr00r00      [17] 4575 	call	_get_key
   1AE8 33            [ 6] 4576 	inc	sp
   1AE9 7D            [ 4] 4577 	ld	a,l
   1AEA B7            [ 4] 4578 	or	a, a
   1AEB 28 0B         [12] 4579 	jr	Z,00127$
   1AED                    4580 00126$:
                           4581 ;puzzmem.c:706: if (touche!=0) continue;
   1AED DD 7E FB      [19] 4582 	ld	a,-5 (ix)
   1AF0 B7            [ 4] 4583 	or	a, a
   1AF1 C2r19r1A      [10] 4584 	jp	NZ,00291$
                           4585 ;puzzmem.c:707: touche=TOUCHE_ENTREE;
   1AF4 DD 36 FB 06   [19] 4586 	ld	-5 (ix),#0x06
   1AF8                    4587 00127$:
                           4588 ;puzzmem.c:709: switch (touche) {
   1AF8 DD 6E FB      [19] 4589 	ld	l,-5 (ix)
   1AFB 7D            [ 4] 4590 	ld	a,l
   1AFC D6 01         [ 7] 4591 	sub	a, #0x01
   1AFE DArE6r24      [10] 4592 	jp	C,00271$
   1B01 3E 06         [ 7] 4593 	ld	a,#0x06
   1B03 95            [ 4] 4594 	sub	a, l
   1B04 DArE6r24      [10] 4595 	jp	C,00271$
   1B07 4D            [ 4] 4596 	ld	c,l
   1B08 0D            [ 4] 4597 	dec	c
   1B09 59            [ 4] 4598 	ld	e,c
   1B0A 16 00         [ 7] 4599 	ld	d,#0x00
   1B0C 21r13r1B      [10] 4600 	ld	hl,#00681$
   1B0F 19            [11] 4601 	add	hl,de
   1B10 19            [11] 4602 	add	hl,de
   1B11 19            [11] 4603 	add	hl,de
   1B12 E9            [ 4] 4604 	jp	(hl)
   1B13                    4605 00681$:
   1B13 C3r25r1B      [10] 4606 	jp	00130$
   1B16 C3rAAr1C      [10] 4607 	jp	00153$
   1B19 C3r3Ar1E      [10] 4608 	jp	00173$
   1B1C C3r27r20      [10] 4609 	jp	00201$
   1B1F C3r48r23      [10] 4610 	jp	00242$
   1B22 C3rD2r23      [10] 4611 	jp	00253$
                           4612 ;puzzmem.c:711: case TOUCHE_HAUT:
   1B25                    4613 00130$:
                           4614 ;puzzmem.c:712: if (etatZone==EN_HAUT) {
   1B25 DD 7E FC      [19] 4615 	ld	a,-4 (ix)
   1B28 3D            [ 4] 4616 	dec	a
   1B29 20 1E         [12] 4617 	jr	NZ,00151$
                           4618 ;puzzmem.c:713: curseurHautOld=curseurHaut;
   1B2B DD 7E FF      [19] 4619 	ld	a,-1 (ix)
   1B2E DD 77 FA      [19] 4620 	ld	-6 (ix),a
                           4621 ;puzzmem.c:714: one_key=EN_HAUT;
   1B31 DD 36 F2 01   [19] 4622 	ld	-14 (ix),#0x01
                           4623 ;puzzmem.c:715: if ((curseurHaut % 2) == 1) {
   1B35 DD 7E FF      [19] 4624 	ld	a,-1 (ix)
   1B38 E6 01         [ 7] 4625 	and	a, #0x01
   1B3A 3D            [ 4] 4626 	dec	a
   1B3B 20 06         [12] 4627 	jr	NZ,00132$
                           4628 ;puzzmem.c:716: curseurHaut=curseurHaut-1;
   1B3D DD 35 FF      [23] 4629 	dec	-1 (ix)
   1B40 C3rE6r24      [10] 4630 	jp	00271$
   1B43                    4631 00132$:
                           4632 ;puzzmem.c:718: curseurHaut=curseurHaut+1;
   1B43 DD 34 FF      [23] 4633 	inc	-1 (ix)
   1B46 C3rE6r24      [10] 4634 	jp	00271$
   1B49                    4635 00151$:
                           4636 ;puzzmem.c:721: if (curseurBas != CURSEUR_BAS_SELECT) {
   1B49 DD 7E FE      [19] 4637 	ld	a,-2 (ix)
   1B4C D6 31         [ 7] 4638 	sub	a, #0x31
   1B4E CArE6r24      [10] 4639 	jp	Z,00271$
                           4640 ;puzzmem.c:722: if (curseurBas > niveauNb - 1) {
   1B51 DD 4E F8      [19] 4641 	ld	c,-8 (ix)
   1B54 06 00         [ 7] 4642 	ld	b,#0x00
   1B56 0B            [ 6] 4643 	dec	bc
   1B57 DD 6E FE      [19] 4644 	ld	l,-2 (ix)
   1B5A 26 00         [ 7] 4645 	ld	h,#0x00
   1B5C 79            [ 4] 4646 	ld	a,c
   1B5D 95            [ 4] 4647 	sub	a, l
   1B5E 78            [ 4] 4648 	ld	a,b
   1B5F 9C            [ 4] 4649 	sbc	a, h
   1B60 E2r65r1B      [10] 4650 	jp	PO, 00687$
   1B63 EE 80         [ 7] 4651 	xor	a, #0x80
   1B65                    4652 00687$:
   1B65 F2rE6r24      [10] 4653 	jp	P,00271$
                           4654 ;puzzmem.c:723: if (etatSelect==SELECT_ON) {
   1B68 DD 7E FD      [19] 4655 	ld	a,-3 (ix)
   1B6B 3D            [ 4] 4656 	dec	a
   1B6C C2r94r1C      [10] 4657 	jp	NZ,00144$
                           4658 ;puzzmem.c:724: grille_x=curseurBas%niveauNb;
   1B6F DD 66 F8      [19] 4659 	ld	h,-8 (ix)
   1B72 DD 6E FE      [19] 4660 	ld	l,-2 (ix)
   1B75 E5            [11] 4661 	push	hl
   1B76 CDr00r00      [17] 4662 	call	__moduchar
   1B79 F1            [10] 4663 	pop	af
   1B7A DD 75 F6      [19] 4664 	ld	-10 (ix),l
                           4665 ;puzzmem.c:725: grille_y=curseurBas/niveauNb;
   1B7D DD 66 F8      [19] 4666 	ld	h,-8 (ix)
   1B80 DD 6E FE      [19] 4667 	ld	l,-2 (ix)
   1B83 E5            [11] 4668 	push	hl
   1B84 CDr00r00      [17] 4669 	call	__divuchar
   1B87 F1            [10] 4670 	pop	af
                           4671 ;puzzmem.c:727: for (p=grille_y;p>=0;) {// 0-1==0...
   1B88 DD 75 F5      [19] 4672 	ld	-11 (ix), l
   1B8B DD 75 F4      [19] 4673 	ld	-12 (ix), l
   1B8E                    4674 00296$:
                           4675 ;puzzmem.c:728: if (private_grille[grille_x][p]==CASE_VIDE) {
   1B8E DD 4E F6      [19] 4676 	ld	c,-10 (ix)
   1B91 06 00         [ 7] 4677 	ld	b,#0x00
   1B93 69            [ 4] 4678 	ld	l, c
   1B94 60            [ 4] 4679 	ld	h, b
   1B95 29            [11] 4680 	add	hl, hl
   1B96 09            [11] 4681 	add	hl, bc
   1B97 29            [11] 4682 	add	hl, hl
   1B98 09            [11] 4683 	add	hl, bc
   1B99 01r31r00      [10] 4684 	ld	bc,#_private_grille
   1B9C 09            [11] 4685 	add	hl,bc
   1B9D 4D            [ 4] 4686 	ld	c,l
   1B9E 44            [ 4] 4687 	ld	b,h
   1B9F DD 6E F4      [19] 4688 	ld	l,-12 (ix)
   1BA2 79            [ 4] 4689 	ld	a,c
   1BA3 85            [ 4] 4690 	add	a, l
   1BA4 4F            [ 4] 4691 	ld	c,a
   1BA5 78            [ 4] 4692 	ld	a,b
   1BA6 CE 00         [ 7] 4693 	adc	a, #0x00
   1BA8 47            [ 4] 4694 	ld	b,a
   1BA9 0A            [ 7] 4695 	ld	a,(bc)
   1BAA D6 12         [ 7] 4696 	sub	a, #0x12
   1BAC C2r87r1C      [10] 4697 	jp	NZ,00138$
                           4698 ;puzzmem.c:729: for (pp=p;pp<grille_y;pp=pp+1) {
   1BAF DD 7E F4      [19] 4699 	ld	a,-12 (ix)
   1BB2 DD 77 F3      [19] 4700 	ld	-13 (ix),a
   1BB5                    4701 00294$:
   1BB5 DD 7E F3      [19] 4702 	ld	a,-13 (ix)
   1BB8 DD 96 F5      [19] 4703 	sub	a, -11 (ix)
   1BBB D2r53r1C      [10] 4704 	jp	NC,00136$
                           4705 ;puzzmem.c:730: private_grille[grille_x][pp]=private_grille[grille_x][pp+1];
   1BBE DD 4E F6      [19] 4706 	ld	c,-10 (ix)
   1BC1 06 00         [ 7] 4707 	ld	b,#0x00
   1BC3 69            [ 4] 4708 	ld	l, c
   1BC4 60            [ 4] 4709 	ld	h, b
   1BC5 29            [11] 4710 	add	hl, hl
   1BC6 09            [11] 4711 	add	hl, bc
   1BC7 29            [11] 4712 	add	hl, hl
   1BC8 09            [11] 4713 	add	hl, bc
   1BC9 01r31r00      [10] 4714 	ld	bc,#_private_grille
   1BCC 09            [11] 4715 	add	hl,bc
   1BCD 4D            [ 4] 4716 	ld	c,l
   1BCE 44            [ 4] 4717 	ld	b,h
   1BCF DD 6E F3      [19] 4718 	ld	l,-13 (ix)
   1BD2 79            [ 4] 4719 	ld	a,c
   1BD3 85            [ 4] 4720 	add	a, l
   1BD4 4F            [ 4] 4721 	ld	c,a
   1BD5 78            [ 4] 4722 	ld	a,b
   1BD6 CE 00         [ 7] 4723 	adc	a, #0x00
   1BD8 47            [ 4] 4724 	ld	b,a
   1BD9 DD 5E F6      [19] 4725 	ld	e,-10 (ix)
   1BDC 16 00         [ 7] 4726 	ld	d,#0x00
   1BDE 6B            [ 4] 4727 	ld	l, e
   1BDF 62            [ 4] 4728 	ld	h, d
   1BE0 29            [11] 4729 	add	hl, hl
   1BE1 19            [11] 4730 	add	hl, de
   1BE2 29            [11] 4731 	add	hl, hl
   1BE3 19            [11] 4732 	add	hl, de
   1BE4 EB            [ 4] 4733 	ex	de,hl
   1BE5 21r31r00      [10] 4734 	ld	hl,#_private_grille
   1BE8 19            [11] 4735 	add	hl,de
   1BE9 EB            [ 4] 4736 	ex	de,hl
   1BEA DD 6E F3      [19] 4737 	ld	l,-13 (ix)
   1BED 2C            [ 4] 4738 	inc	l
   1BEE 7B            [ 4] 4739 	ld	a,e
   1BEF 85            [ 4] 4740 	add	a, l
   1BF0 5F            [ 4] 4741 	ld	e,a
   1BF1 7A            [ 4] 4742 	ld	a,d
   1BF2 CE 00         [ 7] 4743 	adc	a, #0x00
   1BF4 57            [ 4] 4744 	ld	d,a
   1BF5 1A            [ 7] 4745 	ld	a,(de)
   1BF6 02            [ 7] 4746 	ld	(bc),a
                           4747 ;puzzmem.c:731: curseurBasOld=grille_x+pp*niveauNb;
   1BF7 DD 5E F8      [19] 4748 	ld	e,-8 (ix)
   1BFA DD 66 F3      [19] 4749 	ld	h,-13 (ix)
   1BFD 2E 00         [ 7] 4750 	ld	l, #0x00
   1BFF 55            [ 4] 4751 	ld	d, l
   1C00 06 08         [ 7] 4752 	ld	b, #0x08
   1C02                    4753 00692$:
   1C02 29            [11] 4754 	add	hl,hl
   1C03 30 01         [12] 4755 	jr	NC,00693$
   1C05 19            [11] 4756 	add	hl,de
   1C06                    4757 00693$:
   1C06 10 FA         [13] 4758 	djnz	00692$
   1C08 4D            [ 4] 4759 	ld	c,l
   1C09 DD 7E F6      [19] 4760 	ld	a,-10 (ix)
   1C0C 81            [ 4] 4761 	add	a, c
   1C0D DD 77 F9      [19] 4762 	ld	-7 (ix),a
                           4763 ;puzzmem.c:732: if (curseurBasOld!=curseurBas-niveauNb) {
   1C10 DD 4E FE      [19] 4764 	ld	c,-2 (ix)
   1C13 06 00         [ 7] 4765 	ld	b,#0x00
   1C15 DD 5E F8      [19] 4766 	ld	e,-8 (ix)
   1C18 16 00         [ 7] 4767 	ld	d,#0x00
   1C1A 79            [ 4] 4768 	ld	a,c
   1C1B 93            [ 4] 4769 	sub	a, e
   1C1C 4F            [ 4] 4770 	ld	c,a
   1C1D 78            [ 4] 4771 	ld	a,b
   1C1E 9A            [ 4] 4772 	sbc	a, d
   1C1F 47            [ 4] 4773 	ld	b,a
   1C20 DD 7E F9      [19] 4774 	ld	a, -7 (ix)
   1C23 26 00         [ 7] 4775 	ld	h, #0x00
   1C25 91            [ 4] 4776 	sub	a, c
   1C26 20 04         [12] 4777 	jr	NZ,00694$
   1C28 7C            [ 4] 4778 	ld	a,h
   1C29 90            [ 4] 4779 	sub	a, b
   1C2A 28 21         [12] 4780 	jr	Z,00295$
   1C2C                    4781 00694$:
                           4782 ;puzzmem.c:733: fill1Grille(grille,niveauTaille,niveauNb,curseurBasOld,curseurBas,etatSelect,etatZone);
   1C2C DD 66 FC      [19] 4783 	ld	h,-4 (ix)
   1C2F DD 6E FD      [19] 4784 	ld	l,-3 (ix)
   1C32 E5            [11] 4785 	push	hl
   1C33 DD 66 FE      [19] 4786 	ld	h,-2 (ix)
   1C36 DD 6E F9      [19] 4787 	ld	l,-7 (ix)
   1C39 E5            [11] 4788 	push	hl
   1C3A DD 66 F8      [19] 4789 	ld	h,-8 (ix)
   1C3D DD 6E F7      [19] 4790 	ld	l,-9 (ix)
   1C40 E5            [11] 4791 	push	hl
   1C41 2Ar78r00      [16] 4792 	ld	hl,(_grille)
   1C44 E5            [11] 4793 	push	hl
   1C45 CDr71r16      [17] 4794 	call	_fill1Grille
   1C48 21 08 00      [10] 4795 	ld	hl,#8
   1C4B 39            [11] 4796 	add	hl,sp
   1C4C F9            [ 6] 4797 	ld	sp,hl
   1C4D                    4798 00295$:
                           4799 ;puzzmem.c:729: for (pp=p;pp<grille_y;pp=pp+1) {
   1C4D DD 34 F3      [23] 4800 	inc	-13 (ix)
   1C50 C3rB5r1B      [10] 4801 	jp	00294$
   1C53                    4802 00136$:
                           4803 ;puzzmem.c:736: private_grille[grille_x][grille_y]=CASE_VIDE;
   1C53 DD 4E F6      [19] 4804 	ld	c,-10 (ix)
   1C56 06 00         [ 7] 4805 	ld	b,#0x00
   1C58 69            [ 4] 4806 	ld	l, c
   1C59 60            [ 4] 4807 	ld	h, b
   1C5A 29            [11] 4808 	add	hl, hl
   1C5B 09            [11] 4809 	add	hl, bc
   1C5C 29            [11] 4810 	add	hl, hl
   1C5D 09            [11] 4811 	add	hl, bc
   1C5E 01r31r00      [10] 4812 	ld	bc,#_private_grille
   1C61 09            [11] 4813 	add	hl,bc
   1C62 4D            [ 4] 4814 	ld	c,l
   1C63 44            [ 4] 4815 	ld	b,h
   1C64 DD 6E F5      [19] 4816 	ld	l,-11 (ix)
   1C67 79            [ 4] 4817 	ld	a,c
   1C68 85            [ 4] 4818 	add	a, l
   1C69 4F            [ 4] 4819 	ld	c,a
   1C6A 78            [ 4] 4820 	ld	a,b
   1C6B CE 00         [ 7] 4821 	adc	a, #0x00
   1C6D 47            [ 4] 4822 	ld	b,a
   1C6E 3E 12         [ 7] 4823 	ld	a,#0x12
   1C70 02            [ 7] 4824 	ld	(bc),a
                           4825 ;puzzmem.c:737: curseurBasOld=curseurBas; // leger
   1C71 DD 7E FE      [19] 4826 	ld	a,-2 (ix)
   1C74 DD 77 F9      [19] 4827 	ld	-7 (ix),a
                           4828 ;puzzmem.c:738: curseurBas=curseurBas-niveauNb;
   1C77 DD 7E FE      [19] 4829 	ld	a,-2 (ix)
   1C7A DD 96 F8      [19] 4830 	sub	a, -8 (ix)
   1C7D DD 77 FE      [19] 4831 	ld	-2 (ix),a
                           4832 ;puzzmem.c:739: one_key=EN_BAS;
   1C80 DD 36 F2 02   [19] 4833 	ld	-14 (ix),#0x02
                           4834 ;puzzmem.c:740: break;
   1C84 C3rE6r24      [10] 4835 	jp	00271$
   1C87                    4836 00138$:
                           4837 ;puzzmem.c:742: if (p==0) {
   1C87 DD 7E F4      [19] 4838 	ld	a,-12 (ix)
   1C8A B7            [ 4] 4839 	or	a, a
   1C8B CArE6r24      [10] 4840 	jp	Z,00271$
                           4841 ;puzzmem.c:745: p=p-1;
   1C8E DD 35 F4      [23] 4842 	dec	-12 (ix)
   1C91 C3r8Er1B      [10] 4843 	jp	00296$
   1C94                    4844 00144$:
                           4845 ;puzzmem.c:749: curseurBasOld=curseurBas;
   1C94 DD 7E FE      [19] 4846 	ld	a,-2 (ix)
   1C97 DD 77 F9      [19] 4847 	ld	-7 (ix),a
                           4848 ;puzzmem.c:750: curseurBas=curseurBas-niveauNb;
   1C9A DD 7E FE      [19] 4849 	ld	a,-2 (ix)
   1C9D DD 96 F8      [19] 4850 	sub	a, -8 (ix)
   1CA0 DD 77 FE      [19] 4851 	ld	-2 (ix),a
                           4852 ;puzzmem.c:751: one_key=EN_BAS;
   1CA3 DD 36 F2 02   [19] 4853 	ld	-14 (ix),#0x02
                           4854 ;puzzmem.c:756: break;
   1CA7 C3rE6r24      [10] 4855 	jp	00271$
                           4856 ;puzzmem.c:758: case TOUCHE_BAS:
   1CAA                    4857 00153$:
                           4858 ;puzzmem.c:759: if (etatZone==EN_HAUT) {
   1CAA DD 7E FC      [19] 4859 	ld	a,-4 (ix)
   1CAD 3D            [ 4] 4860 	dec	a
   1CAE 20 1C         [12] 4861 	jr	NZ,00171$
                           4862 ;puzzmem.c:760: curseurHautOld=curseurHaut;
   1CB0 DD 7E FF      [19] 4863 	ld	a,-1 (ix)
   1CB3 DD 77 FA      [19] 4864 	ld	-6 (ix),a
                           4865 ;puzzmem.c:761: one_key=EN_HAUT;
   1CB6 DD 36 F2 01   [19] 4866 	ld	-14 (ix),#0x01
                           4867 ;puzzmem.c:762: if ((curseurHaut % 2) == 0) {
   1CBA DD CB FF 46   [20] 4868 	bit	0, -1 (ix)
   1CBE 20 06         [12] 4869 	jr	NZ,00155$
                           4870 ;puzzmem.c:763: curseurHaut=curseurHaut+1;
   1CC0 DD 34 FF      [23] 4871 	inc	-1 (ix)
   1CC3 C3rE6r24      [10] 4872 	jp	00271$
   1CC6                    4873 00155$:
                           4874 ;puzzmem.c:765: curseurHaut=curseurHaut-1;
   1CC6 DD 35 FF      [23] 4875 	dec	-1 (ix)
   1CC9 C3rE6r24      [10] 4876 	jp	00271$
   1CCC                    4877 00171$:
                           4878 ;puzzmem.c:768: if (curseurBas != CURSEUR_BAS_SELECT) {
   1CCC DD 7E FE      [19] 4879 	ld	a,-2 (ix)
   1CCF D6 31         [ 7] 4880 	sub	a, #0x31
   1CD1 CArE6r24      [10] 4881 	jp	Z,00271$
                           4882 ;puzzmem.c:769: if (curseurBas < niveauNb*(niveauNb-1)) {
   1CD4 DD 4E F8      [19] 4883 	ld	c,-8 (ix)
   1CD7 06 00         [ 7] 4884 	ld	b,#0x00
   1CD9 0B            [ 6] 4885 	dec	bc
   1CDA DD 5E F8      [19] 4886 	ld	e,-8 (ix)
   1CDD 16 00         [ 7] 4887 	ld	d,#0x00
   1CDF C5            [11] 4888 	push	bc
   1CE0 D5            [11] 4889 	push	de
   1CE1 CDr00r00      [17] 4890 	call	__mulint
   1CE4 F1            [10] 4891 	pop	af
   1CE5 F1            [10] 4892 	pop	af
   1CE6 DD 7E FE      [19] 4893 	ld	a, -2 (ix)
   1CE9 06 00         [ 7] 4894 	ld	b, #0x00
   1CEB 95            [ 4] 4895 	sub	a, l
   1CEC 78            [ 4] 4896 	ld	a,b
   1CED 9C            [ 4] 4897 	sbc	a, h
   1CEE E2rF3r1C      [10] 4898 	jp	PO, 00700$
   1CF1 EE 80         [ 7] 4899 	xor	a, #0x80
   1CF3                    4900 00700$:
   1CF3 F2rE6r24      [10] 4901 	jp	P,00271$
                           4902 ;puzzmem.c:770: if (etatSelect==SELECT_ON) {
   1CF6 DD 7E FD      [19] 4903 	ld	a,-3 (ix)
   1CF9 3D            [ 4] 4904 	dec	a
   1CFA C2r24r1E      [10] 4905 	jp	NZ,00164$
                           4906 ;puzzmem.c:771: grille_x=curseurBas%niveauNb;
   1CFD DD 66 F8      [19] 4907 	ld	h,-8 (ix)
   1D00 DD 6E FE      [19] 4908 	ld	l,-2 (ix)
   1D03 E5            [11] 4909 	push	hl
   1D04 CDr00r00      [17] 4910 	call	__moduchar
   1D07 F1            [10] 4911 	pop	af
   1D08 DD 75 F6      [19] 4912 	ld	-10 (ix),l
                           4913 ;puzzmem.c:772: grille_y=curseurBas/niveauNb;
   1D0B DD 66 F8      [19] 4914 	ld	h,-8 (ix)
   1D0E DD 6E FE      [19] 4915 	ld	l,-2 (ix)
   1D11 E5            [11] 4916 	push	hl
   1D12 CDr00r00      [17] 4917 	call	__divuchar
   1D15 F1            [10] 4918 	pop	af
                           4919 ;puzzmem.c:774: for (p=grille_y;p<niveauNb;p=p+1) {
   1D16 DD 75 F5      [19] 4920 	ld	-11 (ix), l
   1D19 DD 75 F4      [19] 4921 	ld	-12 (ix), l
   1D1C                    4922 00303$:
   1D1C DD 7E F4      [19] 4923 	ld	a,-12 (ix)
   1D1F DD 96 F8      [19] 4924 	sub	a, -8 (ix)
   1D22 D2rE6r24      [10] 4925 	jp	NC,00271$
                           4926 ;puzzmem.c:775: if (private_grille[grille_x][p]==CASE_VIDE) {
   1D25 DD 4E F6      [19] 4927 	ld	c,-10 (ix)
   1D28 06 00         [ 7] 4928 	ld	b,#0x00
   1D2A 69            [ 4] 4929 	ld	l, c
   1D2B 60            [ 4] 4930 	ld	h, b
   1D2C 29            [11] 4931 	add	hl, hl
   1D2D 09            [11] 4932 	add	hl, bc
   1D2E 29            [11] 4933 	add	hl, hl
   1D2F 09            [11] 4934 	add	hl, bc
   1D30 01r31r00      [10] 4935 	ld	bc,#_private_grille
   1D33 09            [11] 4936 	add	hl,bc
   1D34 4D            [ 4] 4937 	ld	c,l
   1D35 44            [ 4] 4938 	ld	b,h
   1D36 DD 6E F4      [19] 4939 	ld	l,-12 (ix)
   1D39 79            [ 4] 4940 	ld	a,c
   1D3A 85            [ 4] 4941 	add	a, l
   1D3B 4F            [ 4] 4942 	ld	c,a
   1D3C 78            [ 4] 4943 	ld	a,b
   1D3D CE 00         [ 7] 4944 	adc	a, #0x00
   1D3F 47            [ 4] 4945 	ld	b,a
   1D40 0A            [ 7] 4946 	ld	a,(bc)
   1D41 D6 12         [ 7] 4947 	sub	a, #0x12
   1D43 C2r1Er1E      [10] 4948 	jp	NZ,00304$
                           4949 ;puzzmem.c:776: for (pp=p;pp>grille_y;pp=pp-1) {
   1D46 DD 7E F4      [19] 4950 	ld	a,-12 (ix)
   1D49 DD 77 F3      [19] 4951 	ld	-13 (ix),a
   1D4C                    4952 00300$:
   1D4C DD 7E F5      [19] 4953 	ld	a,-11 (ix)
   1D4F DD 96 F3      [19] 4954 	sub	a, -13 (ix)
   1D52 D2rEAr1D      [10] 4955 	jp	NC,00159$
                           4956 ;puzzmem.c:777: private_grille[grille_x][pp]=private_grille[grille_x][pp-1];
   1D55 DD 4E F6      [19] 4957 	ld	c,-10 (ix)
   1D58 06 00         [ 7] 4958 	ld	b,#0x00
   1D5A 69            [ 4] 4959 	ld	l, c
   1D5B 60            [ 4] 4960 	ld	h, b
   1D5C 29            [11] 4961 	add	hl, hl
   1D5D 09            [11] 4962 	add	hl, bc
   1D5E 29            [11] 4963 	add	hl, hl
   1D5F 09            [11] 4964 	add	hl, bc
   1D60 01r31r00      [10] 4965 	ld	bc,#_private_grille
   1D63 09            [11] 4966 	add	hl,bc
   1D64 4D            [ 4] 4967 	ld	c,l
   1D65 44            [ 4] 4968 	ld	b,h
   1D66 DD 6E F3      [19] 4969 	ld	l,-13 (ix)
   1D69 79            [ 4] 4970 	ld	a,c
   1D6A 85            [ 4] 4971 	add	a, l
   1D6B 4F            [ 4] 4972 	ld	c,a
   1D6C 78            [ 4] 4973 	ld	a,b
   1D6D CE 00         [ 7] 4974 	adc	a, #0x00
   1D6F 47            [ 4] 4975 	ld	b,a
   1D70 DD 5E F6      [19] 4976 	ld	e,-10 (ix)
   1D73 16 00         [ 7] 4977 	ld	d,#0x00
   1D75 6B            [ 4] 4978 	ld	l, e
   1D76 62            [ 4] 4979 	ld	h, d
   1D77 29            [11] 4980 	add	hl, hl
   1D78 19            [11] 4981 	add	hl, de
   1D79 29            [11] 4982 	add	hl, hl
   1D7A 19            [11] 4983 	add	hl, de
   1D7B EB            [ 4] 4984 	ex	de,hl
   1D7C 21r31r00      [10] 4985 	ld	hl,#_private_grille
   1D7F 19            [11] 4986 	add	hl,de
   1D80 EB            [ 4] 4987 	ex	de,hl
   1D81 DD 6E F3      [19] 4988 	ld	l,-13 (ix)
   1D84 2D            [ 4] 4989 	dec	l
   1D85 7B            [ 4] 4990 	ld	a,e
   1D86 85            [ 4] 4991 	add	a, l
   1D87 5F            [ 4] 4992 	ld	e,a
   1D88 7A            [ 4] 4993 	ld	a,d
   1D89 CE 00         [ 7] 4994 	adc	a, #0x00
   1D8B 57            [ 4] 4995 	ld	d,a
   1D8C 1A            [ 7] 4996 	ld	a,(de)
   1D8D 02            [ 7] 4997 	ld	(bc),a
                           4998 ;puzzmem.c:778: curseurBasOld=grille_x+pp*niveauNb;
   1D8E DD 5E F8      [19] 4999 	ld	e,-8 (ix)
   1D91 DD 66 F3      [19] 5000 	ld	h,-13 (ix)
   1D94 2E 00         [ 7] 5001 	ld	l, #0x00
   1D96 55            [ 4] 5002 	ld	d, l
   1D97 06 08         [ 7] 5003 	ld	b, #0x08
   1D99                    5004 00705$:
   1D99 29            [11] 5005 	add	hl,hl
   1D9A 30 01         [12] 5006 	jr	NC,00706$
   1D9C 19            [11] 5007 	add	hl,de
   1D9D                    5008 00706$:
   1D9D 10 FA         [13] 5009 	djnz	00705$
   1D9F 4D            [ 4] 5010 	ld	c,l
   1DA0 DD 7E F6      [19] 5011 	ld	a,-10 (ix)
   1DA3 81            [ 4] 5012 	add	a, c
   1DA4 DD 77 F9      [19] 5013 	ld	-7 (ix),a
                           5014 ;puzzmem.c:779: if (curseurBasOld!=curseurBas+niveauNb) {
   1DA7 DD 6E FE      [19] 5015 	ld	l,-2 (ix)
   1DAA 26 00         [ 7] 5016 	ld	h,#0x00
   1DAC DD 4E F8      [19] 5017 	ld	c,-8 (ix)
   1DAF 06 00         [ 7] 5018 	ld	b,#0x00
   1DB1 7D            [ 4] 5019 	ld	a,l
   1DB2 81            [ 4] 5020 	add	a, c
   1DB3 4F            [ 4] 5021 	ld	c,a
   1DB4 7C            [ 4] 5022 	ld	a,h
   1DB5 88            [ 4] 5023 	adc	a, b
   1DB6 47            [ 4] 5024 	ld	b,a
   1DB7 DD 7E F9      [19] 5025 	ld	a, -7 (ix)
   1DBA 26 00         [ 7] 5026 	ld	h, #0x00
   1DBC 91            [ 4] 5027 	sub	a, c
   1DBD 20 04         [12] 5028 	jr	NZ,00707$
   1DBF 7C            [ 4] 5029 	ld	a,h
   1DC0 90            [ 4] 5030 	sub	a, b
   1DC1 28 21         [12] 5031 	jr	Z,00301$
   1DC3                    5032 00707$:
                           5033 ;puzzmem.c:780: fill1Grille(grille,niveauTaille,niveauNb,curseurBasOld,curseurBas,etatSelect,etatZone);
   1DC3 DD 66 FC      [19] 5034 	ld	h,-4 (ix)
   1DC6 DD 6E FD      [19] 5035 	ld	l,-3 (ix)
   1DC9 E5            [11] 5036 	push	hl
   1DCA DD 66 FE      [19] 5037 	ld	h,-2 (ix)
   1DCD DD 6E F9      [19] 5038 	ld	l,-7 (ix)
   1DD0 E5            [11] 5039 	push	hl
   1DD1 DD 66 F8      [19] 5040 	ld	h,-8 (ix)
   1DD4 DD 6E F7      [19] 5041 	ld	l,-9 (ix)
   1DD7 E5            [11] 5042 	push	hl
   1DD8 2Ar78r00      [16] 5043 	ld	hl,(_grille)
   1DDB E5            [11] 5044 	push	hl
   1DDC CDr71r16      [17] 5045 	call	_fill1Grille
   1DDF 21 08 00      [10] 5046 	ld	hl,#8
   1DE2 39            [11] 5047 	add	hl,sp
   1DE3 F9            [ 6] 5048 	ld	sp,hl
   1DE4                    5049 00301$:
                           5050 ;puzzmem.c:776: for (pp=p;pp>grille_y;pp=pp-1) {
   1DE4 DD 35 F3      [23] 5051 	dec	-13 (ix)
   1DE7 C3r4Cr1D      [10] 5052 	jp	00300$
   1DEA                    5053 00159$:
                           5054 ;puzzmem.c:783: private_grille[grille_x][grille_y]=CASE_VIDE;
   1DEA DD 4E F6      [19] 5055 	ld	c,-10 (ix)
   1DED 06 00         [ 7] 5056 	ld	b,#0x00
   1DEF 69            [ 4] 5057 	ld	l, c
   1DF0 60            [ 4] 5058 	ld	h, b
   1DF1 29            [11] 5059 	add	hl, hl
   1DF2 09            [11] 5060 	add	hl, bc
   1DF3 29            [11] 5061 	add	hl, hl
   1DF4 09            [11] 5062 	add	hl, bc
   1DF5 01r31r00      [10] 5063 	ld	bc,#_private_grille
   1DF8 09            [11] 5064 	add	hl,bc
   1DF9 4D            [ 4] 5065 	ld	c,l
   1DFA 44            [ 4] 5066 	ld	b,h
   1DFB DD 6E F5      [19] 5067 	ld	l,-11 (ix)
   1DFE 79            [ 4] 5068 	ld	a,c
   1DFF 85            [ 4] 5069 	add	a, l
   1E00 4F            [ 4] 5070 	ld	c,a
   1E01 78            [ 4] 5071 	ld	a,b
   1E02 CE 00         [ 7] 5072 	adc	a, #0x00
   1E04 47            [ 4] 5073 	ld	b,a
   1E05 3E 12         [ 7] 5074 	ld	a,#0x12
   1E07 02            [ 7] 5075 	ld	(bc),a
                           5076 ;puzzmem.c:784: curseurBasOld=curseurBas; // leger
   1E08 DD 7E FE      [19] 5077 	ld	a,-2 (ix)
   1E0B DD 77 F9      [19] 5078 	ld	-7 (ix),a
                           5079 ;puzzmem.c:785: curseurBas=curseurBas+niveauNb;
   1E0E DD 7E FE      [19] 5080 	ld	a,-2 (ix)
   1E11 DD 86 F8      [19] 5081 	add	a, -8 (ix)
   1E14 DD 77 FE      [19] 5082 	ld	-2 (ix),a
                           5083 ;puzzmem.c:786: one_key=EN_BAS;
   1E17 DD 36 F2 02   [19] 5084 	ld	-14 (ix),#0x02
                           5085 ;puzzmem.c:787: break;
   1E1B C3rE6r24      [10] 5086 	jp	00271$
   1E1E                    5087 00304$:
                           5088 ;puzzmem.c:774: for (p=grille_y;p<niveauNb;p=p+1) {
   1E1E DD 34 F4      [23] 5089 	inc	-12 (ix)
   1E21 C3r1Cr1D      [10] 5090 	jp	00303$
   1E24                    5091 00164$:
                           5092 ;puzzmem.c:791: curseurBasOld=curseurBas;
   1E24 DD 7E FE      [19] 5093 	ld	a,-2 (ix)
   1E27 DD 77 F9      [19] 5094 	ld	-7 (ix),a
                           5095 ;puzzmem.c:792: curseurBas=curseurBas+niveauNb;
   1E2A DD 7E FE      [19] 5096 	ld	a,-2 (ix)
   1E2D DD 86 F8      [19] 5097 	add	a, -8 (ix)
   1E30 DD 77 FE      [19] 5098 	ld	-2 (ix),a
                           5099 ;puzzmem.c:793: one_key=EN_BAS;
   1E33 DD 36 F2 02   [19] 5100 	ld	-14 (ix),#0x02
                           5101 ;puzzmem.c:798: break;
   1E37 C3rE6r24      [10] 5102 	jp	00271$
                           5103 ;puzzmem.c:800: case TOUCHE_DROITE:
   1E3A                    5104 00173$:
                           5105 ;puzzmem.c:801: if (etatZone==EN_HAUT) {
   1E3A DD 7E FC      [19] 5106 	ld	a,-4 (ix)
   1E3D 3D            [ 4] 5107 	dec	a
   1E3E 20 25         [12] 5108 	jr	NZ,00199$
                           5109 ;puzzmem.c:802: curseurHautOld=curseurHaut;
   1E40 DD 7E FF      [19] 5110 	ld	a,-1 (ix)
   1E43 DD 77 FA      [19] 5111 	ld	-6 (ix),a
                           5112 ;puzzmem.c:803: one_key=EN_HAUT;
   1E46 DD 36 F2 01   [19] 5113 	ld	-14 (ix),#0x01
                           5114 ;puzzmem.c:804: if (curseurHaut <16) {
   1E4A DD 7E FF      [19] 5115 	ld	a,-1 (ix)
   1E4D D6 10         [ 7] 5116 	sub	a, #0x10
   1E4F 30 09         [12] 5117 	jr	NC,00175$
                           5118 ;puzzmem.c:805: curseurHaut=curseurHaut+2;
   1E51 DD 34 FF      [23] 5119 	inc	-1 (ix)
   1E54 DD 34 FF      [23] 5120 	inc	-1 (ix)
   1E57 C3rE6r24      [10] 5121 	jp	00271$
   1E5A                    5122 00175$:
                           5123 ;puzzmem.c:807: curseurHaut=curseurHaut-16;
   1E5A DD 7E FF      [19] 5124 	ld	a,-1 (ix)
   1E5D C6 F0         [ 7] 5125 	add	a,#0xf0
   1E5F DD 77 FF      [19] 5126 	ld	-1 (ix),a
   1E62 C3rE6r24      [10] 5127 	jp	00271$
   1E65                    5128 00199$:
                           5129 ;puzzmem.c:810: if (curseurBas != CURSEUR_BAS_SELECT) {
   1E65 DD 7E FE      [19] 5130 	ld	a,-2 (ix)
   1E68 D6 31         [ 7] 5131 	sub	a, #0x31
   1E6A CArE6r24      [10] 5132 	jp	Z,00271$
                           5133 ;puzzmem.c:811: if (curseurBas % niveauNb < niveauNb - 1) {
   1E6D DD 66 F8      [19] 5134 	ld	h,-8 (ix)
   1E70 DD 6E FE      [19] 5135 	ld	l,-2 (ix)
   1E73 E5            [11] 5136 	push	hl
   1E74 CDr00r00      [17] 5137 	call	__moduchar
   1E77 F1            [10] 5138 	pop	af
   1E78 4D            [ 4] 5139 	ld	c,l
   1E79 DD 5E F8      [19] 5140 	ld	e,-8 (ix)
   1E7C 16 00         [ 7] 5141 	ld	d,#0x00
   1E7E 1B            [ 6] 5142 	dec	de
   1E7F 69            [ 4] 5143 	ld	l,c
   1E80 26 00         [ 7] 5144 	ld	h,#0x00
   1E82 7D            [ 4] 5145 	ld	a,l
   1E83 93            [ 4] 5146 	sub	a, e
   1E84 7C            [ 4] 5147 	ld	a,h
   1E85 9A            [ 4] 5148 	sbc	a, d
   1E86 E2r8Br1E      [10] 5149 	jp	PO, 00711$
   1E89 EE 80         [ 7] 5150 	xor	a, #0x80
   1E8B                    5151 00711$:
   1E8B F2rC0r1F      [10] 5152 	jp	P,00194$
                           5153 ;puzzmem.c:812: if (etatSelect==SELECT_ON) {
   1E8E DD 7E FD      [19] 5154 	ld	a,-3 (ix)
   1E91 3D            [ 4] 5155 	dec	a
   1E92 C2rB0r1F      [10] 5156 	jp	NZ,00184$
                           5157 ;puzzmem.c:813: grille_x=curseurBas%niveauNb;
   1E95 DD 66 F8      [19] 5158 	ld	h,-8 (ix)
   1E98 DD 6E FE      [19] 5159 	ld	l,-2 (ix)
   1E9B E5            [11] 5160 	push	hl
   1E9C CDr00r00      [17] 5161 	call	__moduchar
   1E9F F1            [10] 5162 	pop	af
   1EA0 DD 75 F6      [19] 5163 	ld	-10 (ix),l
                           5164 ;puzzmem.c:814: grille_y=curseurBas/niveauNb;
   1EA3 DD 66 F8      [19] 5165 	ld	h,-8 (ix)
   1EA6 DD 6E FE      [19] 5166 	ld	l,-2 (ix)
   1EA9 E5            [11] 5167 	push	hl
   1EAA CDr00r00      [17] 5168 	call	__divuchar
   1EAD F1            [10] 5169 	pop	af
   1EAE DD 75 F5      [19] 5170 	ld	-11 (ix),l
                           5171 ;puzzmem.c:816: for (p=grille_x;p<niveauNb;p=p+1) {
   1EB1 DD 7E F6      [19] 5172 	ld	a,-10 (ix)
   1EB4 DD 77 F4      [19] 5173 	ld	-12 (ix),a
   1EB7                    5174 00309$:
   1EB7 DD 7E F4      [19] 5175 	ld	a,-12 (ix)
   1EBA DD 96 F8      [19] 5176 	sub	a, -8 (ix)
   1EBD D2rE6r24      [10] 5177 	jp	NC,00271$
                           5178 ;puzzmem.c:817: if (private_grille[p][grille_y]==CASE_VIDE) {
   1EC0 DD 4E F4      [19] 5179 	ld	c,-12 (ix)
   1EC3 06 00         [ 7] 5180 	ld	b,#0x00
   1EC5 69            [ 4] 5181 	ld	l, c
   1EC6 60            [ 4] 5182 	ld	h, b
   1EC7 29            [11] 5183 	add	hl, hl
   1EC8 09            [11] 5184 	add	hl, bc
   1EC9 29            [11] 5185 	add	hl, hl
   1ECA 09            [11] 5186 	add	hl, bc
   1ECB 01r31r00      [10] 5187 	ld	bc,#_private_grille
   1ECE 09            [11] 5188 	add	hl,bc
   1ECF 4D            [ 4] 5189 	ld	c,l
   1ED0 44            [ 4] 5190 	ld	b,h
   1ED1 DD 6E F5      [19] 5191 	ld	l,-11 (ix)
   1ED4 79            [ 4] 5192 	ld	a,c
   1ED5 85            [ 4] 5193 	add	a, l
   1ED6 4F            [ 4] 5194 	ld	c,a
   1ED7 78            [ 4] 5195 	ld	a,b
   1ED8 CE 00         [ 7] 5196 	adc	a, #0x00
   1EDA 47            [ 4] 5197 	ld	b,a
   1EDB 0A            [ 7] 5198 	ld	a,(bc)
   1EDC D6 12         [ 7] 5199 	sub	a, #0x12
   1EDE C2rAAr1F      [10] 5200 	jp	NZ,00310$
                           5201 ;puzzmem.c:818: for (pp=p;pp>grille_x;pp=pp-1) {
   1EE1 DD 7E F4      [19] 5202 	ld	a,-12 (ix)
   1EE4 DD 77 F3      [19] 5203 	ld	-13 (ix),a
   1EE7                    5204 00306$:
   1EE7 DD 7E F6      [19] 5205 	ld	a,-10 (ix)
   1EEA DD 96 F3      [19] 5206 	sub	a, -13 (ix)
   1EED D2r7Cr1F      [10] 5207 	jp	NC,00179$
                           5208 ;puzzmem.c:819: private_grille[pp][grille_y]=private_grille[pp-1][grille_y];
   1EF0 DD 4E F3      [19] 5209 	ld	c,-13 (ix)
   1EF3 06 00         [ 7] 5210 	ld	b,#0x00
   1EF5 69            [ 4] 5211 	ld	l, c
   1EF6 60            [ 4] 5212 	ld	h, b
   1EF7 29            [11] 5213 	add	hl, hl
   1EF8 09            [11] 5214 	add	hl, bc
   1EF9 29            [11] 5215 	add	hl, hl
   1EFA 09            [11] 5216 	add	hl, bc
   1EFB 01r31r00      [10] 5217 	ld	bc,#_private_grille
   1EFE 09            [11] 5218 	add	hl,bc
   1EFF 4D            [ 4] 5219 	ld	c,l
   1F00 44            [ 4] 5220 	ld	b,h
   1F01 DD 6E F5      [19] 5221 	ld	l,-11 (ix)
   1F04 79            [ 4] 5222 	ld	a,c
   1F05 85            [ 4] 5223 	add	a, l
   1F06 4F            [ 4] 5224 	ld	c,a
   1F07 78            [ 4] 5225 	ld	a,b
   1F08 CE 00         [ 7] 5226 	adc	a, #0x00
   1F0A 47            [ 4] 5227 	ld	b,a
   1F0B DD 6E F3      [19] 5228 	ld	l,-13 (ix)
   1F0E 2D            [ 4] 5229 	dec	l
   1F0F 5D            [ 4] 5230 	ld	e,l
   1F10 16 00         [ 7] 5231 	ld	d,#0x00
   1F12 6B            [ 4] 5232 	ld	l, e
   1F13 62            [ 4] 5233 	ld	h, d
   1F14 29            [11] 5234 	add	hl, hl
   1F15 19            [11] 5235 	add	hl, de
   1F16 29            [11] 5236 	add	hl, hl
   1F17 19            [11] 5237 	add	hl, de
   1F18 EB            [ 4] 5238 	ex	de,hl
   1F19 21r31r00      [10] 5239 	ld	hl,#_private_grille
   1F1C 19            [11] 5240 	add	hl,de
   1F1D EB            [ 4] 5241 	ex	de,hl
   1F1E DD 6E F5      [19] 5242 	ld	l,-11 (ix)
   1F21 7B            [ 4] 5243 	ld	a,e
   1F22 85            [ 4] 5244 	add	a, l
   1F23 5F            [ 4] 5245 	ld	e,a
   1F24 7A            [ 4] 5246 	ld	a,d
   1F25 CE 00         [ 7] 5247 	adc	a, #0x00
   1F27 57            [ 4] 5248 	ld	d,a
   1F28 1A            [ 7] 5249 	ld	a,(de)
   1F29 02            [ 7] 5250 	ld	(bc),a
                           5251 ;puzzmem.c:820: curseurBasOld=pp+grille_y*niveauNb;
   1F2A DD 5E F8      [19] 5252 	ld	e,-8 (ix)
   1F2D DD 66 F5      [19] 5253 	ld	h,-11 (ix)
   1F30 2E 00         [ 7] 5254 	ld	l, #0x00
   1F32 55            [ 4] 5255 	ld	d, l
   1F33 06 08         [ 7] 5256 	ld	b, #0x08
   1F35                    5257 00716$:
   1F35 29            [11] 5258 	add	hl,hl
   1F36 30 01         [12] 5259 	jr	NC,00717$
   1F38 19            [11] 5260 	add	hl,de
   1F39                    5261 00717$:
   1F39 10 FA         [13] 5262 	djnz	00716$
   1F3B 4D            [ 4] 5263 	ld	c,l
   1F3C DD 7E F3      [19] 5264 	ld	a,-13 (ix)
   1F3F 81            [ 4] 5265 	add	a, c
   1F40 DD 77 F9      [19] 5266 	ld	-7 (ix),a
                           5267 ;puzzmem.c:821: if (curseurBasOld!=curseurBas+1) {
   1F43 DD 4E FE      [19] 5268 	ld	c, -2 (ix)
   1F46 06 00         [ 7] 5269 	ld	b, #0x00
   1F48 03            [ 6] 5270 	inc	bc
   1F49 DD 7E F9      [19] 5271 	ld	a, -7 (ix)
   1F4C 26 00         [ 7] 5272 	ld	h, #0x00
   1F4E 91            [ 4] 5273 	sub	a, c
   1F4F 20 04         [12] 5274 	jr	NZ,00718$
   1F51 7C            [ 4] 5275 	ld	a,h
   1F52 90            [ 4] 5276 	sub	a, b
   1F53 28 21         [12] 5277 	jr	Z,00307$
   1F55                    5278 00718$:
                           5279 ;puzzmem.c:822: fill1Grille(grille,niveauTaille,niveauNb,curseurBasOld,curseurBas,etatSelect,etatZone);
   1F55 DD 66 FC      [19] 5280 	ld	h,-4 (ix)
   1F58 DD 6E FD      [19] 5281 	ld	l,-3 (ix)
   1F5B E5            [11] 5282 	push	hl
   1F5C DD 66 FE      [19] 5283 	ld	h,-2 (ix)
   1F5F DD 6E F9      [19] 5284 	ld	l,-7 (ix)
   1F62 E5            [11] 5285 	push	hl
   1F63 DD 66 F8      [19] 5286 	ld	h,-8 (ix)
   1F66 DD 6E F7      [19] 5287 	ld	l,-9 (ix)
   1F69 E5            [11] 5288 	push	hl
   1F6A 2Ar78r00      [16] 5289 	ld	hl,(_grille)
   1F6D E5            [11] 5290 	push	hl
   1F6E CDr71r16      [17] 5291 	call	_fill1Grille
   1F71 21 08 00      [10] 5292 	ld	hl,#8
   1F74 39            [11] 5293 	add	hl,sp
   1F75 F9            [ 6] 5294 	ld	sp,hl
   1F76                    5295 00307$:
                           5296 ;puzzmem.c:818: for (pp=p;pp>grille_x;pp=pp-1) {
   1F76 DD 35 F3      [23] 5297 	dec	-13 (ix)
   1F79 C3rE7r1E      [10] 5298 	jp	00306$
   1F7C                    5299 00179$:
                           5300 ;puzzmem.c:825: private_grille[grille_x][grille_y]=CASE_VIDE;
   1F7C DD 4E F6      [19] 5301 	ld	c,-10 (ix)
   1F7F 06 00         [ 7] 5302 	ld	b,#0x00
   1F81 69            [ 4] 5303 	ld	l, c
   1F82 60            [ 4] 5304 	ld	h, b
   1F83 29            [11] 5305 	add	hl, hl
   1F84 09            [11] 5306 	add	hl, bc
   1F85 29            [11] 5307 	add	hl, hl
   1F86 09            [11] 5308 	add	hl, bc
   1F87 01r31r00      [10] 5309 	ld	bc,#_private_grille
   1F8A 09            [11] 5310 	add	hl,bc
   1F8B 4D            [ 4] 5311 	ld	c,l
   1F8C 44            [ 4] 5312 	ld	b,h
   1F8D DD 6E F5      [19] 5313 	ld	l,-11 (ix)
   1F90 79            [ 4] 5314 	ld	a,c
   1F91 85            [ 4] 5315 	add	a, l
   1F92 4F            [ 4] 5316 	ld	c,a
   1F93 78            [ 4] 5317 	ld	a,b
   1F94 CE 00         [ 7] 5318 	adc	a, #0x00
   1F96 47            [ 4] 5319 	ld	b,a
   1F97 3E 12         [ 7] 5320 	ld	a,#0x12
   1F99 02            [ 7] 5321 	ld	(bc),a
                           5322 ;puzzmem.c:826: curseurBasOld=curseurBas; // leger
   1F9A DD 7E FE      [19] 5323 	ld	a,-2 (ix)
   1F9D DD 77 F9      [19] 5324 	ld	-7 (ix),a
                           5325 ;puzzmem.c:827: curseurBas=curseurBas+1;
   1FA0 DD 34 FE      [23] 5326 	inc	-2 (ix)
                           5327 ;puzzmem.c:828: one_key=EN_BAS;
   1FA3 DD 36 F2 02   [19] 5328 	ld	-14 (ix),#0x02
                           5329 ;puzzmem.c:829: break;
   1FA7 C3rE6r24      [10] 5330 	jp	00271$
   1FAA                    5331 00310$:
                           5332 ;puzzmem.c:816: for (p=grille_x;p<niveauNb;p=p+1) {
   1FAA DD 34 F4      [23] 5333 	inc	-12 (ix)
   1FAD C3rB7r1E      [10] 5334 	jp	00309$
   1FB0                    5335 00184$:
                           5336 ;puzzmem.c:833: curseurBasOld=curseurBas;
   1FB0 DD 7E FE      [19] 5337 	ld	a,-2 (ix)
   1FB3 DD 77 F9      [19] 5338 	ld	-7 (ix),a
                           5339 ;puzzmem.c:834: curseurBas=curseurBas+1;
   1FB6 DD 34 FE      [23] 5340 	inc	-2 (ix)
                           5341 ;puzzmem.c:835: one_key=EN_BAS;
   1FB9 DD 36 F2 02   [19] 5342 	ld	-14 (ix),#0x02
   1FBD C3rE6r24      [10] 5343 	jp	00271$
   1FC0                    5344 00194$:
                           5345 ;puzzmem.c:837: } else if (curseurBas < niveauNb) {
   1FC0 DD 7E FE      [19] 5346 	ld	a,-2 (ix)
   1FC3 DD 96 F8      [19] 5347 	sub	a, -8 (ix)
   1FC6 D2rE6r24      [10] 5348 	jp	NC,00271$
                           5349 ;puzzmem.c:839: if (etatSelect==SELECT_ON) {
   1FC9 DD 7E FD      [19] 5350 	ld	a,-3 (ix)
   1FCC 3D            [ 4] 5351 	dec	a
   1FCD 20 47         [12] 5352 	jr	NZ,00189$
                           5353 ;puzzmem.c:840: if (select==CASE_VIDE) {
   1FCF FD 21r7Ar00   [14] 5354 	ld	iy,#_select
   1FD3 FD 7E 00      [19] 5355 	ld	a,0 (iy)
   1FD6 D6 12         [ 7] 5356 	sub	a, #0x12
   1FD8 C2rE6r24      [10] 5357 	jp	NZ,00271$
                           5358 ;puzzmem.c:841: select=private_grille[niveauNb - 1][0];
   1FDB DD 6E F8      [19] 5359 	ld	l,-8 (ix)
   1FDE 2D            [ 4] 5360 	dec	l
   1FDF 4D            [ 4] 5361 	ld	c,l
   1FE0 06 00         [ 7] 5362 	ld	b,#0x00
   1FE2 69            [ 4] 5363 	ld	l, c
   1FE3 60            [ 4] 5364 	ld	h, b
   1FE4 29            [11] 5365 	add	hl, hl
   1FE5 09            [11] 5366 	add	hl, bc
   1FE6 29            [11] 5367 	add	hl, hl
   1FE7 09            [11] 5368 	add	hl, bc
   1FE8 01r31r00      [10] 5369 	ld	bc,#_private_grille
   1FEB 09            [11] 5370 	add	hl,bc
   1FEC 4D            [ 4] 5371 	ld	c,l
   1FED 44            [ 4] 5372 	ld	b,h
   1FEE 0A            [ 7] 5373 	ld	a,(bc)
   1FEF FD 77 00      [19] 5374 	ld	0 (iy),a
                           5375 ;puzzmem.c:842: private_grille[niveauNb - 1][0]=CASE_VIDE;
   1FF2 DD 6E F8      [19] 5376 	ld	l,-8 (ix)
   1FF5 2D            [ 4] 5377 	dec	l
   1FF6 4D            [ 4] 5378 	ld	c,l
   1FF7 06 00         [ 7] 5379 	ld	b,#0x00
   1FF9 69            [ 4] 5380 	ld	l, c
   1FFA 60            [ 4] 5381 	ld	h, b
   1FFB 29            [11] 5382 	add	hl, hl
   1FFC 09            [11] 5383 	add	hl, bc
   1FFD 29            [11] 5384 	add	hl, hl
   1FFE 09            [11] 5385 	add	hl, bc
   1FFF 01r31r00      [10] 5386 	ld	bc,#_private_grille
   2002 09            [11] 5387 	add	hl,bc
   2003 36 12         [10] 5388 	ld	(hl),#0x12
                           5389 ;puzzmem.c:843: curseurBasOld=curseurBas;
   2005 DD 7E FE      [19] 5390 	ld	a,-2 (ix)
   2008 DD 77 F9      [19] 5391 	ld	-7 (ix),a
                           5392 ;puzzmem.c:844: curseurBas=CURSEUR_BAS_SELECT;
   200B DD 36 FE 31   [19] 5393 	ld	-2 (ix),#0x31
                           5394 ;puzzmem.c:845: one_key=EN_BAS;
   200F DD 36 F2 02   [19] 5395 	ld	-14 (ix),#0x02
   2013 C3rE6r24      [10] 5396 	jp	00271$
   2016                    5397 00189$:
                           5398 ;puzzmem.c:848: curseurBasOld=curseurBas;
   2016 DD 7E FE      [19] 5399 	ld	a,-2 (ix)
   2019 DD 77 F9      [19] 5400 	ld	-7 (ix),a
                           5401 ;puzzmem.c:849: curseurBas=CURSEUR_BAS_SELECT;
   201C DD 36 FE 31   [19] 5402 	ld	-2 (ix),#0x31
                           5403 ;puzzmem.c:850: one_key=EN_BAS;
   2020 DD 36 F2 02   [19] 5404 	ld	-14 (ix),#0x02
                           5405 ;puzzmem.c:855: break;
   2024 C3rE6r24      [10] 5406 	jp	00271$
                           5407 ;puzzmem.c:857: case TOUCHE_GAUCHE:
   2027                    5408 00201$:
                           5409 ;puzzmem.c:858: if (etatZone==EN_HAUT) {
   2027 DD 7E FC      [19] 5410 	ld	a,-4 (ix)
   202A 3D            [ 4] 5411 	dec	a
   202B 20 25         [12] 5412 	jr	NZ,00240$
                           5413 ;puzzmem.c:859: curseurHautOld=curseurHaut;
   202D DD 7E FF      [19] 5414 	ld	a,-1 (ix)
   2030 DD 77 FA      [19] 5415 	ld	-6 (ix),a
                           5416 ;puzzmem.c:860: one_key=EN_HAUT;
   2033 DD 36 F2 01   [19] 5417 	ld	-14 (ix),#0x01
                           5418 ;puzzmem.c:861: if (curseurHaut >=2) {
   2037 DD 7E FF      [19] 5419 	ld	a,-1 (ix)
   203A D6 02         [ 7] 5420 	sub	a, #0x02
   203C 38 09         [12] 5421 	jr	C,00203$
                           5422 ;puzzmem.c:862: curseurHaut=curseurHaut-2;
   203E DD 35 FF      [23] 5423 	dec	-1 (ix)
   2041 DD 35 FF      [23] 5424 	dec	-1 (ix)
   2044 C3rE6r24      [10] 5425 	jp	00271$
   2047                    5426 00203$:
                           5427 ;puzzmem.c:864: curseurHaut=curseurHaut+16;
   2047 DD 7E FF      [19] 5428 	ld	a,-1 (ix)
   204A C6 10         [ 7] 5429 	add	a, #0x10
   204C DD 77 FF      [19] 5430 	ld	-1 (ix),a
   204F C3rE6r24      [10] 5431 	jp	00271$
   2052                    5432 00240$:
                           5433 ;puzzmem.c:867: if (curseurBas == CURSEUR_BAS_SELECT) {
   2052 DD 7E FE      [19] 5434 	ld	a,-2 (ix)
   2055 D6 31         [ 7] 5435 	sub	a, #0x31
   2057 C2r08r22      [10] 5436 	jp	NZ,00237$
                           5437 ;puzzmem.c:868: if (etatSelect==SELECT_ON) {
   205A DD 7E FD      [19] 5438 	ld	a,-3 (ix)
   205D 3D            [ 4] 5439 	dec	a
   205E C2rF3r21      [10] 5440 	jp	NZ,00220$
                           5441 ;puzzmem.c:869: if (private_grille[niveauNb - 1][0]==CASE_VIDE) {
   2061 DD 6E F8      [19] 5442 	ld	l,-8 (ix)
   2064 2D            [ 4] 5443 	dec	l
   2065 4D            [ 4] 5444 	ld	c,l
   2066 06 00         [ 7] 5445 	ld	b,#0x00
   2068 69            [ 4] 5446 	ld	l, c
   2069 60            [ 4] 5447 	ld	h, b
   206A 29            [11] 5448 	add	hl, hl
   206B 09            [11] 5449 	add	hl, bc
   206C 29            [11] 5450 	add	hl, hl
   206D 09            [11] 5451 	add	hl, bc
   206E 01r31r00      [10] 5452 	ld	bc,#_private_grille
   2071 09            [11] 5453 	add	hl,bc
   2072 4D            [ 4] 5454 	ld	c,l
   2073 44            [ 4] 5455 	ld	b,h
   2074 0A            [ 7] 5456 	ld	a,(bc)
   2075 D6 12         [ 7] 5457 	sub	a, #0x12
   2077 20 34         [12] 5458 	jr	NZ,00217$
                           5459 ;puzzmem.c:870: private_grille[niveauNb - 1][0]=select;select=CASE_VIDE;
   2079 DD 6E F8      [19] 5460 	ld	l,-8 (ix)
   207C 2D            [ 4] 5461 	dec	l
   207D 4D            [ 4] 5462 	ld	c,l
   207E 06 00         [ 7] 5463 	ld	b,#0x00
   2080 69            [ 4] 5464 	ld	l, c
   2081 60            [ 4] 5465 	ld	h, b
   2082 29            [11] 5466 	add	hl, hl
   2083 09            [11] 5467 	add	hl, bc
   2084 29            [11] 5468 	add	hl, hl
   2085 09            [11] 5469 	add	hl, bc
   2086 01r31r00      [10] 5470 	ld	bc,#_private_grille
   2089 09            [11] 5471 	add	hl,bc
   208A 4D            [ 4] 5472 	ld	c,l
   208B 44            [ 4] 5473 	ld	b,h
   208C FD 21r7Ar00   [14] 5474 	ld	iy,#_select
   2090 FD 7E 00      [19] 5475 	ld	a,0 (iy)
   2093 02            [ 7] 5476 	ld	(bc),a
   2094 FD 36 00 12   [19] 5477 	ld	0 (iy),#0x12
                           5478 ;puzzmem.c:871: curseurBasOld=curseurBas;
   2098 DD 7E FE      [19] 5479 	ld	a,-2 (ix)
   209B DD 77 F9      [19] 5480 	ld	-7 (ix),a
                           5481 ;puzzmem.c:872: curseurBas=niveauNb - 1;
   209E DD 7E F8      [19] 5482 	ld	a,-8 (ix)
   20A1 C6 FF         [ 7] 5483 	add	a,#0xff
   20A3 DD 77 FE      [19] 5484 	ld	-2 (ix),a
                           5485 ;puzzmem.c:873: one_key=EN_BAS;
   20A6 DD 36 F2 02   [19] 5486 	ld	-14 (ix),#0x02
   20AA C3rE6r24      [10] 5487 	jp	00271$
   20AD                    5488 00217$:
                           5489 ;puzzmem.c:875: curseurBas=niveauNb - 1;
   20AD DD 7E F8      [19] 5490 	ld	a,-8 (ix)
   20B0 C6 FF         [ 7] 5491 	add	a,#0xff
   20B2 DD 77 FE      [19] 5492 	ld	-2 (ix),a
                           5493 ;puzzmem.c:876: grille_x=curseurBas%niveauNb;
   20B5 DD 66 F8      [19] 5494 	ld	h,-8 (ix)
   20B8 DD 6E FE      [19] 5495 	ld	l,-2 (ix)
   20BB E5            [11] 5496 	push	hl
   20BC CDr00r00      [17] 5497 	call	__moduchar
   20BF F1            [10] 5498 	pop	af
   20C0 DD 75 F6      [19] 5499 	ld	-10 (ix),l
                           5500 ;puzzmem.c:877: grille_y=curseurBas/niveauNb;
   20C3 DD 66 F8      [19] 5501 	ld	h,-8 (ix)
   20C6 DD 6E FE      [19] 5502 	ld	l,-2 (ix)
   20C9 E5            [11] 5503 	push	hl
   20CA CDr00r00      [17] 5504 	call	__divuchar
   20CD F1            [10] 5505 	pop	af
   20CE DD 75 F5      [19] 5506 	ld	-11 (ix),l
                           5507 ;puzzmem.c:879: if (grille_x>0) {
   20D1 DD 7E F6      [19] 5508 	ld	a,-10 (ix)
   20D4 B7            [ 4] 5509 	or	a, a
   20D5 CArE6r24      [10] 5510 	jp	Z,00271$
                           5511 ;puzzmem.c:880: for (p=grille_x;p>=0;) { // 0-1==0...
   20D8 DD 7E F6      [19] 5512 	ld	a,-10 (ix)
   20DB DD 77 F4      [19] 5513 	ld	-12 (ix),a
   20DE                    5514 00314$:
                           5515 ;puzzmem.c:881: if (private_grille[p][grille_y]==CASE_VIDE) {
   20DE DD 4E F4      [19] 5516 	ld	c,-12 (ix)
   20E1 06 00         [ 7] 5517 	ld	b,#0x00
   20E3 69            [ 4] 5518 	ld	l, c
   20E4 60            [ 4] 5519 	ld	h, b
   20E5 29            [11] 5520 	add	hl, hl
   20E6 09            [11] 5521 	add	hl, bc
   20E7 29            [11] 5522 	add	hl, hl
   20E8 09            [11] 5523 	add	hl, bc
   20E9 01r31r00      [10] 5524 	ld	bc,#_private_grille
   20EC 09            [11] 5525 	add	hl,bc
   20ED 4D            [ 4] 5526 	ld	c,l
   20EE 44            [ 4] 5527 	ld	b,h
   20EF DD 6E F5      [19] 5528 	ld	l,-11 (ix)
   20F2 79            [ 4] 5529 	ld	a,c
   20F3 85            [ 4] 5530 	add	a, l
   20F4 4F            [ 4] 5531 	ld	c,a
   20F5 78            [ 4] 5532 	ld	a,b
   20F6 CE 00         [ 7] 5533 	adc	a, #0x00
   20F8 47            [ 4] 5534 	ld	b,a
   20F9 0A            [ 7] 5535 	ld	a,(bc)
   20FA D6 12         [ 7] 5536 	sub	a, #0x12
   20FC C2rE6r21      [10] 5537 	jp	NZ,00209$
                           5538 ;puzzmem.c:882: for (pp=p;pp<grille_x;pp=pp+1) {
   20FF DD 7E F4      [19] 5539 	ld	a,-12 (ix)
   2102 DD 77 F3      [19] 5540 	ld	-13 (ix),a
   2105                    5541 00312$:
   2105 DD 7E F3      [19] 5542 	ld	a,-13 (ix)
   2108 DD 96 F6      [19] 5543 	sub	a, -10 (ix)
   210B D2r9Ar21      [10] 5544 	jp	NC,00207$
                           5545 ;puzzmem.c:883: private_grille[pp][grille_y]=private_grille[pp+1][grille_y];
   210E DD 4E F3      [19] 5546 	ld	c,-13 (ix)
   2111 06 00         [ 7] 5547 	ld	b,#0x00
   2113 69            [ 4] 5548 	ld	l, c
   2114 60            [ 4] 5549 	ld	h, b
   2115 29            [11] 5550 	add	hl, hl
   2116 09            [11] 5551 	add	hl, bc
   2117 29            [11] 5552 	add	hl, hl
   2118 09            [11] 5553 	add	hl, bc
   2119 01r31r00      [10] 5554 	ld	bc,#_private_grille
   211C 09            [11] 5555 	add	hl,bc
   211D 4D            [ 4] 5556 	ld	c,l
   211E 44            [ 4] 5557 	ld	b,h
   211F DD 6E F5      [19] 5558 	ld	l,-11 (ix)
   2122 79            [ 4] 5559 	ld	a,c
   2123 85            [ 4] 5560 	add	a, l
   2124 4F            [ 4] 5561 	ld	c,a
   2125 78            [ 4] 5562 	ld	a,b
   2126 CE 00         [ 7] 5563 	adc	a, #0x00
   2128 47            [ 4] 5564 	ld	b,a
   2129 DD 6E F3      [19] 5565 	ld	l,-13 (ix)
   212C 2C            [ 4] 5566 	inc	l
   212D 5D            [ 4] 5567 	ld	e,l
   212E 16 00         [ 7] 5568 	ld	d,#0x00
   2130 6B            [ 4] 5569 	ld	l, e
   2131 62            [ 4] 5570 	ld	h, d
   2132 29            [11] 5571 	add	hl, hl
   2133 19            [11] 5572 	add	hl, de
   2134 29            [11] 5573 	add	hl, hl
   2135 19            [11] 5574 	add	hl, de
   2136 EB            [ 4] 5575 	ex	de,hl
   2137 21r31r00      [10] 5576 	ld	hl,#_private_grille
   213A 19            [11] 5577 	add	hl,de
   213B EB            [ 4] 5578 	ex	de,hl
   213C DD 6E F5      [19] 5579 	ld	l,-11 (ix)
   213F 7B            [ 4] 5580 	ld	a,e
   2140 85            [ 4] 5581 	add	a, l
   2141 5F            [ 4] 5582 	ld	e,a
   2142 7A            [ 4] 5583 	ld	a,d
   2143 CE 00         [ 7] 5584 	adc	a, #0x00
   2145 57            [ 4] 5585 	ld	d,a
   2146 1A            [ 7] 5586 	ld	a,(de)
   2147 02            [ 7] 5587 	ld	(bc),a
                           5588 ;puzzmem.c:884: curseurBasOld=pp+grille_y*niveauNb;
   2148 DD 5E F8      [19] 5589 	ld	e,-8 (ix)
   214B DD 66 F5      [19] 5590 	ld	h,-11 (ix)
   214E 2E 00         [ 7] 5591 	ld	l, #0x00
   2150 55            [ 4] 5592 	ld	d, l
   2151 06 08         [ 7] 5593 	ld	b, #0x08
   2153                    5594 00733$:
   2153 29            [11] 5595 	add	hl,hl
   2154 30 01         [12] 5596 	jr	NC,00734$
   2156 19            [11] 5597 	add	hl,de
   2157                    5598 00734$:
   2157 10 FA         [13] 5599 	djnz	00733$
   2159 4D            [ 4] 5600 	ld	c,l
   215A DD 7E F3      [19] 5601 	ld	a,-13 (ix)
   215D 81            [ 4] 5602 	add	a, c
   215E DD 77 F9      [19] 5603 	ld	-7 (ix),a
                           5604 ;puzzmem.c:885: if (curseurBasOld!=niveauNb-1) {
   2161 DD 4E F8      [19] 5605 	ld	c,-8 (ix)
   2164 06 00         [ 7] 5606 	ld	b,#0x00
   2166 0B            [ 6] 5607 	dec	bc
   2167 DD 7E F9      [19] 5608 	ld	a, -7 (ix)
   216A 26 00         [ 7] 5609 	ld	h, #0x00
   216C 91            [ 4] 5610 	sub	a, c
   216D 20 04         [12] 5611 	jr	NZ,00735$
   216F 7C            [ 4] 5612 	ld	a,h
   2170 90            [ 4] 5613 	sub	a, b
   2171 28 21         [12] 5614 	jr	Z,00313$
   2173                    5615 00735$:
                           5616 ;puzzmem.c:886: fill1Grille(grille,niveauTaille,niveauNb,curseurBasOld,curseurBas,etatSelect,etatZone);
   2173 DD 66 FC      [19] 5617 	ld	h,-4 (ix)
   2176 DD 6E FD      [19] 5618 	ld	l,-3 (ix)
   2179 E5            [11] 5619 	push	hl
   217A DD 66 FE      [19] 5620 	ld	h,-2 (ix)
   217D DD 6E F9      [19] 5621 	ld	l,-7 (ix)
   2180 E5            [11] 5622 	push	hl
   2181 DD 66 F8      [19] 5623 	ld	h,-8 (ix)
   2184 DD 6E F7      [19] 5624 	ld	l,-9 (ix)
   2187 E5            [11] 5625 	push	hl
   2188 2Ar78r00      [16] 5626 	ld	hl,(_grille)
   218B E5            [11] 5627 	push	hl
   218C CDr71r16      [17] 5628 	call	_fill1Grille
   218F 21 08 00      [10] 5629 	ld	hl,#8
   2192 39            [11] 5630 	add	hl,sp
   2193 F9            [ 6] 5631 	ld	sp,hl
   2194                    5632 00313$:
                           5633 ;puzzmem.c:882: for (pp=p;pp<grille_x;pp=pp+1) {
   2194 DD 34 F3      [23] 5634 	inc	-13 (ix)
   2197 C3r05r21      [10] 5635 	jp	00312$
   219A                    5636 00207$:
                           5637 ;puzzmem.c:889: private_grille[niveauNb - 1][0]=select;
   219A DD 6E F8      [19] 5638 	ld	l,-8 (ix)
   219D 2D            [ 4] 5639 	dec	l
   219E 4D            [ 4] 5640 	ld	c,l
   219F 06 00         [ 7] 5641 	ld	b,#0x00
   21A1 69            [ 4] 5642 	ld	l, c
   21A2 60            [ 4] 5643 	ld	h, b
   21A3 29            [11] 5644 	add	hl, hl
   21A4 09            [11] 5645 	add	hl, bc
   21A5 29            [11] 5646 	add	hl, hl
   21A6 09            [11] 5647 	add	hl, bc
   21A7 01r31r00      [10] 5648 	ld	bc,#_private_grille
   21AA 09            [11] 5649 	add	hl,bc
   21AB 4D            [ 4] 5650 	ld	c,l
   21AC 44            [ 4] 5651 	ld	b,h
   21AD FD 21r7Ar00   [14] 5652 	ld	iy,#_select
   21B1 FD 7E 00      [19] 5653 	ld	a,0 (iy)
   21B4 02            [ 7] 5654 	ld	(bc),a
                           5655 ;puzzmem.c:890: select=CASE_VIDE;
   21B5 FD 36 00 12   [19] 5656 	ld	0 (iy),#0x12
                           5657 ;puzzmem.c:891: curseurBasOld=curseurBas; // leger
   21B9 DD 7E FE      [19] 5658 	ld	a,-2 (ix)
   21BC DD 77 F9      [19] 5659 	ld	-7 (ix),a
                           5660 ;puzzmem.c:892: curseurBas=niveauNb - 1;
   21BF DD 7E F8      [19] 5661 	ld	a,-8 (ix)
   21C2 C6 FF         [ 7] 5662 	add	a,#0xff
   21C4 DD 77 FE      [19] 5663 	ld	-2 (ix),a
                           5664 ;puzzmem.c:893: fillSelect(niveauTaille,curseurBas,select,etatSelect,etatZone);
   21C7 DD 7E FC      [19] 5665 	ld	a,-4 (ix)
   21CA F5            [11] 5666 	push	af
   21CB 33            [ 6] 5667 	inc	sp
   21CC DD 56 FD      [19] 5668 	ld	d, -3 (ix)
   21CF 1E 12         [ 7] 5669 	ld	e,#0x12
   21D1 D5            [11] 5670 	push	de
   21D2 DD 66 FE      [19] 5671 	ld	h,-2 (ix)
   21D5 DD 6E F7      [19] 5672 	ld	l,-9 (ix)
   21D8 E5            [11] 5673 	push	hl
   21D9 CDr30r17      [17] 5674 	call	_fillSelect
   21DC F1            [10] 5675 	pop	af
   21DD F1            [10] 5676 	pop	af
   21DE 33            [ 6] 5677 	inc	sp
                           5678 ;puzzmem.c:894: one_key=EN_BAS;
   21DF DD 36 F2 02   [19] 5679 	ld	-14 (ix),#0x02
                           5680 ;puzzmem.c:895: break;
   21E3 C3rE6r24      [10] 5681 	jp	00271$
   21E6                    5682 00209$:
                           5683 ;puzzmem.c:897: if (p==0) {
   21E6 DD 7E F4      [19] 5684 	ld	a,-12 (ix)
   21E9 B7            [ 4] 5685 	or	a, a
   21EA CArE6r24      [10] 5686 	jp	Z,00271$
                           5687 ;puzzmem.c:900: p=p-1;
   21ED DD 35 F4      [23] 5688 	dec	-12 (ix)
   21F0 C3rDEr20      [10] 5689 	jp	00314$
   21F3                    5690 00220$:
                           5691 ;puzzmem.c:907: curseurBasOld=curseurBas;
   21F3 DD 7E FE      [19] 5692 	ld	a,-2 (ix)
   21F6 DD 77 F9      [19] 5693 	ld	-7 (ix),a
                           5694 ;puzzmem.c:908: curseurBas = niveauNb - 1;
   21F9 DD 7E F8      [19] 5695 	ld	a,-8 (ix)
   21FC C6 FF         [ 7] 5696 	add	a,#0xff
   21FE DD 77 FE      [19] 5697 	ld	-2 (ix),a
                           5698 ;puzzmem.c:909: one_key=EN_BAS;
   2201 DD 36 F2 02   [19] 5699 	ld	-14 (ix),#0x02
   2205 C3rE6r24      [10] 5700 	jp	00271$
   2208                    5701 00237$:
                           5702 ;puzzmem.c:912: if (curseurBas % niveauNb > 0) {
   2208 DD 66 F8      [19] 5703 	ld	h,-8 (ix)
   220B DD 6E FE      [19] 5704 	ld	l,-2 (ix)
   220E E5            [11] 5705 	push	hl
   220F CDr00r00      [17] 5706 	call	__moduchar
   2212 F1            [10] 5707 	pop	af
   2213 7D            [ 4] 5708 	ld	a,l
   2214 B7            [ 4] 5709 	or	a, a
   2215 CArE6r24      [10] 5710 	jp	Z,00271$
                           5711 ;puzzmem.c:913: if (etatSelect==SELECT_ON) {
   2218 DD 7E FD      [19] 5712 	ld	a,-3 (ix)
   221B 3D            [ 4] 5713 	dec	a
   221C C2r38r23      [10] 5714 	jp	NZ,00232$
                           5715 ;puzzmem.c:914: grille_x=curseurBas%niveauNb;
   221F DD 66 F8      [19] 5716 	ld	h,-8 (ix)
   2222 DD 6E FE      [19] 5717 	ld	l,-2 (ix)
   2225 E5            [11] 5718 	push	hl
   2226 CDr00r00      [17] 5719 	call	__moduchar
   2229 F1            [10] 5720 	pop	af
   222A DD 75 F6      [19] 5721 	ld	-10 (ix),l
                           5722 ;puzzmem.c:915: grille_y=curseurBas/niveauNb;
   222D DD 66 F8      [19] 5723 	ld	h,-8 (ix)
   2230 DD 6E FE      [19] 5724 	ld	l,-2 (ix)
   2233 E5            [11] 5725 	push	hl
   2234 CDr00r00      [17] 5726 	call	__divuchar
   2237 F1            [10] 5727 	pop	af
   2238 DD 75 F5      [19] 5728 	ld	-11 (ix),l
                           5729 ;puzzmem.c:917: for (p=grille_x;p>=0;) { // 0-1==0...
   223B DD 7E F6      [19] 5730 	ld	a,-10 (ix)
   223E DD 77 F4      [19] 5731 	ld	-12 (ix),a
   2241                    5732 00320$:
                           5733 ;puzzmem.c:918: if (private_grille[p][grille_y]==CASE_VIDE) {
   2241 DD 4E F4      [19] 5734 	ld	c,-12 (ix)
   2244 06 00         [ 7] 5735 	ld	b,#0x00
   2246 69            [ 4] 5736 	ld	l, c
   2247 60            [ 4] 5737 	ld	h, b
   2248 29            [11] 5738 	add	hl, hl
   2249 09            [11] 5739 	add	hl, bc
   224A 29            [11] 5740 	add	hl, hl
   224B 09            [11] 5741 	add	hl, bc
   224C 01r31r00      [10] 5742 	ld	bc,#_private_grille
   224F 09            [11] 5743 	add	hl,bc
   2250 4D            [ 4] 5744 	ld	c,l
   2251 44            [ 4] 5745 	ld	b,h
   2252 DD 6E F5      [19] 5746 	ld	l,-11 (ix)
   2255 79            [ 4] 5747 	ld	a,c
   2256 85            [ 4] 5748 	add	a, l
   2257 4F            [ 4] 5749 	ld	c,a
   2258 78            [ 4] 5750 	ld	a,b
   2259 CE 00         [ 7] 5751 	adc	a, #0x00
   225B 47            [ 4] 5752 	ld	b,a
   225C 0A            [ 7] 5753 	ld	a,(bc)
   225D D6 12         [ 7] 5754 	sub	a, #0x12
   225F C2r2Br23      [10] 5755 	jp	NZ,00226$
                           5756 ;puzzmem.c:919: for (pp=p;pp<grille_x;pp=pp+1) {
   2262 DD 7E F4      [19] 5757 	ld	a,-12 (ix)
   2265 DD 77 F3      [19] 5758 	ld	-13 (ix),a
   2268                    5759 00318$:
   2268 DD 7E F3      [19] 5760 	ld	a,-13 (ix)
   226B DD 96 F6      [19] 5761 	sub	a, -10 (ix)
   226E D2rFDr22      [10] 5762 	jp	NC,00224$
                           5763 ;puzzmem.c:920: private_grille[pp][grille_y]=private_grille[pp+1][grille_y];
   2271 DD 4E F3      [19] 5764 	ld	c,-13 (ix)
   2274 06 00         [ 7] 5765 	ld	b,#0x00
   2276 69            [ 4] 5766 	ld	l, c
   2277 60            [ 4] 5767 	ld	h, b
   2278 29            [11] 5768 	add	hl, hl
   2279 09            [11] 5769 	add	hl, bc
   227A 29            [11] 5770 	add	hl, hl
   227B 09            [11] 5771 	add	hl, bc
   227C 01r31r00      [10] 5772 	ld	bc,#_private_grille
   227F 09            [11] 5773 	add	hl,bc
   2280 4D            [ 4] 5774 	ld	c,l
   2281 44            [ 4] 5775 	ld	b,h
   2282 DD 6E F5      [19] 5776 	ld	l,-11 (ix)
   2285 79            [ 4] 5777 	ld	a,c
   2286 85            [ 4] 5778 	add	a, l
   2287 4F            [ 4] 5779 	ld	c,a
   2288 78            [ 4] 5780 	ld	a,b
   2289 CE 00         [ 7] 5781 	adc	a, #0x00
   228B 47            [ 4] 5782 	ld	b,a
   228C DD 6E F3      [19] 5783 	ld	l,-13 (ix)
   228F 2C            [ 4] 5784 	inc	l
   2290 5D            [ 4] 5785 	ld	e,l
   2291 16 00         [ 7] 5786 	ld	d,#0x00
   2293 6B            [ 4] 5787 	ld	l, e
   2294 62            [ 4] 5788 	ld	h, d
   2295 29            [11] 5789 	add	hl, hl
   2296 19            [11] 5790 	add	hl, de
   2297 29            [11] 5791 	add	hl, hl
   2298 19            [11] 5792 	add	hl, de
   2299 EB            [ 4] 5793 	ex	de,hl
   229A 21r31r00      [10] 5794 	ld	hl,#_private_grille
   229D 19            [11] 5795 	add	hl,de
   229E EB            [ 4] 5796 	ex	de,hl
   229F DD 6E F5      [19] 5797 	ld	l,-11 (ix)
   22A2 7B            [ 4] 5798 	ld	a,e
   22A3 85            [ 4] 5799 	add	a, l
   22A4 5F            [ 4] 5800 	ld	e,a
   22A5 7A            [ 4] 5801 	ld	a,d
   22A6 CE 00         [ 7] 5802 	adc	a, #0x00
   22A8 57            [ 4] 5803 	ld	d,a
   22A9 1A            [ 7] 5804 	ld	a,(de)
   22AA 02            [ 7] 5805 	ld	(bc),a
                           5806 ;puzzmem.c:921: curseurBasOld=pp+grille_y*niveauNb;
   22AB DD 5E F8      [19] 5807 	ld	e,-8 (ix)
   22AE DD 66 F5      [19] 5808 	ld	h,-11 (ix)
   22B1 2E 00         [ 7] 5809 	ld	l, #0x00
   22B3 55            [ 4] 5810 	ld	d, l
   22B4 06 08         [ 7] 5811 	ld	b, #0x08
   22B6                    5812 00740$:
   22B6 29            [11] 5813 	add	hl,hl
   22B7 30 01         [12] 5814 	jr	NC,00741$
   22B9 19            [11] 5815 	add	hl,de
   22BA                    5816 00741$:
   22BA 10 FA         [13] 5817 	djnz	00740$
   22BC 4D            [ 4] 5818 	ld	c,l
   22BD DD 7E F3      [19] 5819 	ld	a,-13 (ix)
   22C0 81            [ 4] 5820 	add	a, c
   22C1 DD 77 F9      [19] 5821 	ld	-7 (ix),a
                           5822 ;puzzmem.c:922: if (curseurBasOld!=curseurBas-1) {
   22C4 DD 4E FE      [19] 5823 	ld	c,-2 (ix)
   22C7 06 00         [ 7] 5824 	ld	b,#0x00
   22C9 0B            [ 6] 5825 	dec	bc
   22CA DD 7E F9      [19] 5826 	ld	a, -7 (ix)
   22CD 26 00         [ 7] 5827 	ld	h, #0x00
   22CF 91            [ 4] 5828 	sub	a, c
   22D0 20 04         [12] 5829 	jr	NZ,00742$
   22D2 7C            [ 4] 5830 	ld	a,h
   22D3 90            [ 4] 5831 	sub	a, b
   22D4 28 21         [12] 5832 	jr	Z,00319$
   22D6                    5833 00742$:
                           5834 ;puzzmem.c:923: fill1Grille(grille,niveauTaille,niveauNb,curseurBasOld,curseurBas,etatSelect,etatZone);
   22D6 DD 66 FC      [19] 5835 	ld	h,-4 (ix)
   22D9 DD 6E FD      [19] 5836 	ld	l,-3 (ix)
   22DC E5            [11] 5837 	push	hl
   22DD DD 66 FE      [19] 5838 	ld	h,-2 (ix)
   22E0 DD 6E F9      [19] 5839 	ld	l,-7 (ix)
   22E3 E5            [11] 5840 	push	hl
   22E4 DD 66 F8      [19] 5841 	ld	h,-8 (ix)
   22E7 DD 6E F7      [19] 5842 	ld	l,-9 (ix)
   22EA E5            [11] 5843 	push	hl
   22EB 2Ar78r00      [16] 5844 	ld	hl,(_grille)
   22EE E5            [11] 5845 	push	hl
   22EF CDr71r16      [17] 5846 	call	_fill1Grille
   22F2 21 08 00      [10] 5847 	ld	hl,#8
   22F5 39            [11] 5848 	add	hl,sp
   22F6 F9            [ 6] 5849 	ld	sp,hl
   22F7                    5850 00319$:
                           5851 ;puzzmem.c:919: for (pp=p;pp<grille_x;pp=pp+1) {
   22F7 DD 34 F3      [23] 5852 	inc	-13 (ix)
   22FA C3r68r22      [10] 5853 	jp	00318$
   22FD                    5854 00224$:
                           5855 ;puzzmem.c:926: private_grille[grille_x][grille_y]=CASE_VIDE;
   22FD DD 4E F6      [19] 5856 	ld	c,-10 (ix)
   2300 06 00         [ 7] 5857 	ld	b,#0x00
   2302 69            [ 4] 5858 	ld	l, c
   2303 60            [ 4] 5859 	ld	h, b
   2304 29            [11] 5860 	add	hl, hl
   2305 09            [11] 5861 	add	hl, bc
   2306 29            [11] 5862 	add	hl, hl
   2307 09            [11] 5863 	add	hl, bc
   2308 01r31r00      [10] 5864 	ld	bc,#_private_grille
   230B 09            [11] 5865 	add	hl,bc
   230C 4D            [ 4] 5866 	ld	c,l
   230D 44            [ 4] 5867 	ld	b,h
   230E DD 6E F5      [19] 5868 	ld	l,-11 (ix)
   2311 79            [ 4] 5869 	ld	a,c
   2312 85            [ 4] 5870 	add	a, l
   2313 4F            [ 4] 5871 	ld	c,a
   2314 78            [ 4] 5872 	ld	a,b
   2315 CE 00         [ 7] 5873 	adc	a, #0x00
   2317 47            [ 4] 5874 	ld	b,a
   2318 3E 12         [ 7] 5875 	ld	a,#0x12
   231A 02            [ 7] 5876 	ld	(bc),a
                           5877 ;puzzmem.c:927: curseurBasOld=curseurBas; // leger
   231B DD 7E FE      [19] 5878 	ld	a,-2 (ix)
   231E DD 77 F9      [19] 5879 	ld	-7 (ix),a
                           5880 ;puzzmem.c:928: curseurBas=curseurBas-1;
   2321 DD 35 FE      [23] 5881 	dec	-2 (ix)
                           5882 ;puzzmem.c:929: one_key=EN_BAS;
   2324 DD 36 F2 02   [19] 5883 	ld	-14 (ix),#0x02
                           5884 ;puzzmem.c:930: break;
   2328 C3rE6r24      [10] 5885 	jp	00271$
   232B                    5886 00226$:
                           5887 ;puzzmem.c:932: if (p==0) {
   232B DD 7E F4      [19] 5888 	ld	a,-12 (ix)
   232E B7            [ 4] 5889 	or	a, a
   232F CArE6r24      [10] 5890 	jp	Z,00271$
                           5891 ;puzzmem.c:935: p=p-1;
   2332 DD 35 F4      [23] 5892 	dec	-12 (ix)
   2335 C3r41r22      [10] 5893 	jp	00320$
   2338                    5894 00232$:
                           5895 ;puzzmem.c:939: curseurBasOld=curseurBas;
   2338 DD 7E FE      [19] 5896 	ld	a,-2 (ix)
   233B DD 77 F9      [19] 5897 	ld	-7 (ix),a
                           5898 ;puzzmem.c:940: curseurBas=curseurBas-1;
   233E DD 35 FE      [23] 5899 	dec	-2 (ix)
                           5900 ;puzzmem.c:941: one_key=EN_BAS;
   2341 DD 36 F2 02   [19] 5901 	ld	-14 (ix),#0x02
                           5902 ;puzzmem.c:946: break;
   2345 C3rE6r24      [10] 5903 	jp	00271$
                           5904 ;puzzmem.c:948: case TOUCHE_ESPACE:
   2348                    5905 00242$:
                           5906 ;puzzmem.c:949: one_key=EN_HAUT_ET_EN_BAS;
   2348 DD 36 F2 03   [19] 5907 	ld	-14 (ix),#0x03
                           5908 ;puzzmem.c:950: if (etatZone==EN_HAUT) {
   234C DD 7E FC      [19] 5909 	ld	a,-4 (ix)
   234F 3D            [ 4] 5910 	dec	a
   2350 20 61         [12] 5911 	jr	NZ,00251$
                           5912 ;puzzmem.c:951: etatZone=EN_BAS;
   2352 DD 36 FC 02   [19] 5913 	ld	-4 (ix),#0x02
                           5914 ;puzzmem.c:952: if ((select==CASE_VIDE) && (nbPieces[curseurHaut]>0)) {
   2356 3Ar7Ar00      [13] 5915 	ld	a,(#_select + 0)
   2359 D6 12         [ 7] 5916 	sub	a, #0x12
   235B 20 43         [12] 5917 	jr	NZ,00247$
   235D FD 21r74r00   [14] 5918 	ld	iy,#_nbPieces
   2361 FD 7E 00      [19] 5919 	ld	a,0 (iy)
   2364 DD 86 FF      [19] 5920 	add	a, -1 (ix)
   2367 4F            [ 4] 5921 	ld	c,a
   2368 FD 7E 01      [19] 5922 	ld	a,1 (iy)
   236B CE 00         [ 7] 5923 	adc	a, #0x00
   236D 47            [ 4] 5924 	ld	b,a
   236E 0A            [ 7] 5925 	ld	a,(bc)
   236F B7            [ 4] 5926 	or	a, a
   2370 28 2E         [12] 5927 	jr	Z,00247$
                           5928 ;puzzmem.c:953: select=curseurHaut;
   2372 DD 7E FF      [19] 5929 	ld	a,-1 (ix)
   2375 32r7Ar00      [13] 5930 	ld	(#_select + 0),a
                           5931 ;puzzmem.c:954: nbPieces[curseurHaut]=nbPieces[curseurHaut]-1;
   2378 FD 21r74r00   [14] 5932 	ld	iy,#_nbPieces
   237C FD 7E 00      [19] 5933 	ld	a,0 (iy)
   237F DD 86 FF      [19] 5934 	add	a, -1 (ix)
   2382 4F            [ 4] 5935 	ld	c,a
   2383 FD 7E 01      [19] 5936 	ld	a,1 (iy)
   2386 CE 00         [ 7] 5937 	adc	a, #0x00
   2388 47            [ 4] 5938 	ld	b,a
   2389 FD 7E 00      [19] 5939 	ld	a,0 (iy)
   238C DD 86 FF      [19] 5940 	add	a, -1 (ix)
   238F 5F            [ 4] 5941 	ld	e,a
   2390 FD 7E 01      [19] 5942 	ld	a,1 (iy)
   2393 CE 00         [ 7] 5943 	adc	a, #0x00
   2395 57            [ 4] 5944 	ld	d,a
   2396 1A            [ 7] 5945 	ld	a,(de)
   2397 C6 FF         [ 7] 5946 	add	a,#0xff
   2399 02            [ 7] 5947 	ld	(bc),a
                           5948 ;puzzmem.c:955: etatSelect=SELECT_ON;
   239A DD 36 FD 01   [19] 5949 	ld	-3 (ix),#0x01
   239E 18 1B         [12] 5950 	jr	00252$
   23A0                    5951 00247$:
                           5952 ;puzzmem.c:956: } else if (select==CASE_VIDE) {
   23A0 3Ar7Ar00      [13] 5953 	ld	a,(#_select + 0)
   23A3 D6 12         [ 7] 5954 	sub	a, #0x12
   23A5 20 06         [12] 5955 	jr	NZ,00244$
                           5956 ;puzzmem.c:957: etatSelect=SELECT_OFF;
   23A7 DD 36 FD 00   [19] 5957 	ld	-3 (ix),#0x00
   23AB 18 0E         [12] 5958 	jr	00252$
   23AD                    5959 00244$:
                           5960 ;puzzmem.c:959: etatSelect=SELECT_ON;
   23AD DD 36 FD 01   [19] 5961 	ld	-3 (ix),#0x01
   23B1 18 08         [12] 5962 	jr	00252$
   23B3                    5963 00251$:
                           5964 ;puzzmem.c:962: etatZone=EN_HAUT;
   23B3 DD 36 FC 01   [19] 5965 	ld	-4 (ix),#0x01
                           5966 ;puzzmem.c:963: etatSelect=SELECT_OFF;
   23B7 DD 36 FD 00   [19] 5967 	ld	-3 (ix),#0x00
   23BB                    5968 00252$:
                           5969 ;puzzmem.c:965: curseurHautOld=curseurHaut;
   23BB DD 7E FF      [19] 5970 	ld	a,-1 (ix)
   23BE DD 77 FA      [19] 5971 	ld	-6 (ix),a
                           5972 ;puzzmem.c:966: curseurHaut=0;
   23C1 DD 36 FF 00   [19] 5973 	ld	-1 (ix),#0x00
                           5974 ;puzzmem.c:967: curseurBasOld=curseurBas;
   23C5 DD 7E FE      [19] 5975 	ld	a,-2 (ix)
   23C8 DD 77 F9      [19] 5976 	ld	-7 (ix),a
                           5977 ;puzzmem.c:968: curseurBas=CURSEUR_BAS_SELECT;
   23CB DD 36 FE 31   [19] 5978 	ld	-2 (ix),#0x31
                           5979 ;puzzmem.c:969: break;
   23CF C3rE6r24      [10] 5980 	jp	00271$
                           5981 ;puzzmem.c:971: case TOUCHE_ENTREE:
   23D2                    5982 00253$:
                           5983 ;puzzmem.c:972: if (etatSelect==SELECT_ON) {
   23D2 DD 7E FD      [19] 5984 	ld	a,-3 (ix)
   23D5 3D            [ 4] 5985 	dec	a
   23D6 20 0D         [12] 5986 	jr	NZ,00269$
                           5987 ;puzzmem.c:973: etatSelect=SELECT_OFF;
   23D8 DD 36 FD 00   [19] 5988 	ld	-3 (ix),#0x00
                           5989 ;puzzmem.c:974: one_key=etatZone; // EN_HAUT ou EN_BAS
   23DC DD 7E FC      [19] 5990 	ld	a,-4 (ix)
   23DF DD 77 F2      [19] 5991 	ld	-14 (ix),a
   23E2 C3rE6r24      [10] 5992 	jp	00271$
   23E5                    5993 00269$:
                           5994 ;puzzmem.c:976: if (etatZone==EN_HAUT) {
   23E5 DD 7E FC      [19] 5995 	ld	a,-4 (ix)
   23E8 3D            [ 4] 5996 	dec	a
   23E9 C2r7Er24      [10] 5997 	jp	NZ,00266$
                           5998 ;puzzmem.c:977: if (nbPieces[curseurHaut]>0) {
   23EC FD 21r74r00   [14] 5999 	ld	iy,#_nbPieces
   23F0 FD 7E 00      [19] 6000 	ld	a,0 (iy)
   23F3 DD 86 FF      [19] 6001 	add	a, -1 (ix)
   23F6 4F            [ 4] 6002 	ld	c,a
   23F7 FD 7E 01      [19] 6003 	ld	a,1 (iy)
   23FA CE 00         [ 7] 6004 	adc	a, #0x00
   23FC 47            [ 4] 6005 	ld	b,a
   23FD 0A            [ 7] 6006 	ld	a,(bc)
   23FE B7            [ 4] 6007 	or	a, a
   23FF CArE6r24      [10] 6008 	jp	Z,00271$
                           6009 ;puzzmem.c:978: etatZone=EN_BAS;
   2402 DD 36 FC 02   [19] 6010 	ld	-4 (ix),#0x02
                           6011 ;puzzmem.c:979: if (select!=CASE_VIDE) {
   2406 3Ar7Ar00      [13] 6012 	ld	a,(#_select + 0)
   2409 D6 12         [ 7] 6013 	sub	a, #0x12
   240B 28 35         [12] 6014 	jr	Z,00255$
                           6015 ;puzzmem.c:980: nbPieces[select]=nbPieces[select]+1;
   240D 21r7Ar00      [10] 6016 	ld	hl,#_select
   2410 FD 21r74r00   [14] 6017 	ld	iy,#_nbPieces
   2414 FD 7E 00      [19] 6018 	ld	a,0 (iy)
   2417 86            [ 7] 6019 	add	a, (hl)
   2418 4F            [ 4] 6020 	ld	c,a
   2419 FD 7E 01      [19] 6021 	ld	a,1 (iy)
   241C CE 00         [ 7] 6022 	adc	a, #0x00
   241E 47            [ 4] 6023 	ld	b,a
   241F 0A            [ 7] 6024 	ld	a,(bc)
   2420 3C            [ 4] 6025 	inc	a
   2421 02            [ 7] 6026 	ld	(bc),a
                           6027 ;puzzmem.c:981: fillListe1Piece(nbPieces,select,select,etatSelect,etatZone,0);
   2422 AF            [ 4] 6028 	xor	a, a
   2423 F5            [11] 6029 	push	af
   2424 33            [ 6] 6030 	inc	sp
   2425 DD 66 FC      [19] 6031 	ld	h,-4 (ix)
   2428 DD 6E FD      [19] 6032 	ld	l,-3 (ix)
   242B E5            [11] 6033 	push	hl
   242C 3Ar7Ar00      [13] 6034 	ld	a,(_select)
   242F F5            [11] 6035 	push	af
   2430 33            [ 6] 6036 	inc	sp
   2431 3Ar7Ar00      [13] 6037 	ld	a,(_select)
   2434 F5            [11] 6038 	push	af
   2435 33            [ 6] 6039 	inc	sp
   2436 2Ar74r00      [16] 6040 	ld	hl,(_nbPieces)
   2439 E5            [11] 6041 	push	hl
   243A CDrA8r14      [17] 6042 	call	_fillListe1Piece
   243D 21 07 00      [10] 6043 	ld	hl,#7
   2440 39            [11] 6044 	add	hl,sp
   2441 F9            [ 6] 6045 	ld	sp,hl
   2442                    6046 00255$:
                           6047 ;puzzmem.c:983: select=curseurHaut;
   2442 DD 7E FF      [19] 6048 	ld	a,-1 (ix)
   2445 32r7Ar00      [13] 6049 	ld	(#_select + 0),a
                           6050 ;puzzmem.c:984: nbPieces[curseurHaut]=nbPieces[curseurHaut]-1;
   2448 FD 21r74r00   [14] 6051 	ld	iy,#_nbPieces
   244C FD 7E 00      [19] 6052 	ld	a,0 (iy)
   244F DD 86 FF      [19] 6053 	add	a, -1 (ix)
   2452 4F            [ 4] 6054 	ld	c,a
   2453 FD 7E 01      [19] 6055 	ld	a,1 (iy)
   2456 CE 00         [ 7] 6056 	adc	a, #0x00
   2458 47            [ 4] 6057 	ld	b,a
   2459 FD 7E 00      [19] 6058 	ld	a,0 (iy)
   245C DD 86 FF      [19] 6059 	add	a, -1 (ix)
   245F 5F            [ 4] 6060 	ld	e,a
   2460 FD 7E 01      [19] 6061 	ld	a,1 (iy)
   2463 CE 00         [ 7] 6062 	adc	a, #0x00
   2465 57            [ 4] 6063 	ld	d,a
   2466 1A            [ 7] 6064 	ld	a,(de)
   2467 C6 FF         [ 7] 6065 	add	a,#0xff
   2469 02            [ 7] 6066 	ld	(bc),a
                           6067 ;puzzmem.c:985: one_key=EN_HAUT_ET_EN_BAS; // le compteur dcrmente, et select bouge
   246A DD 36 F2 03   [19] 6068 	ld	-14 (ix),#0x03
                           6069 ;puzzmem.c:986: etatSelect=SELECT_ON;
   246E DD 36 FD 01   [19] 6070 	ld	-3 (ix),#0x01
                           6071 ;puzzmem.c:987: curseurBasOld=curseurBas;
   2472 DD 7E FE      [19] 6072 	ld	a,-2 (ix)
   2475 DD 77 F9      [19] 6073 	ld	-7 (ix),a
                           6074 ;puzzmem.c:988: curseurBas=CURSEUR_BAS_SELECT;
   2478 DD 36 FE 31   [19] 6075 	ld	-2 (ix),#0x31
   247C 18 68         [12] 6076 	jr	00271$
   247E                    6077 00266$:
                           6078 ;puzzmem.c:991: if (curseurBas == CURSEUR_BAS_SELECT) {
   247E DD 7E FE      [19] 6079 	ld	a,-2 (ix)
   2481 D6 31         [ 7] 6080 	sub	a, #0x31
   2483 20 17         [12] 6081 	jr	NZ,00263$
                           6082 ;puzzmem.c:992: if (select != CASE_VIDE) {
   2485 3Ar7Ar00      [13] 6083 	ld	a,(#_select + 0)
   2488 D6 12         [ 7] 6084 	sub	a, #0x12
   248A 28 5A         [12] 6085 	jr	Z,00271$
                           6086 ;puzzmem.c:993: etatSelect=SELECT_ON;
   248C DD 36 FD 01   [19] 6087 	ld	-3 (ix),#0x01
                           6088 ;puzzmem.c:994: curseurBasOld=curseurBas; // cheeting
   2490 DD 7E FE      [19] 6089 	ld	a,-2 (ix)
   2493 DD 77 F9      [19] 6090 	ld	-7 (ix),a
                           6091 ;puzzmem.c:995: one_key=EN_BAS;
   2496 DD 36 F2 02   [19] 6092 	ld	-14 (ix),#0x02
   249A 18 4A         [12] 6093 	jr	00271$
   249C                    6094 00263$:
                           6095 ;puzzmem.c:998: grille_x=curseurBas%niveauNb;
   249C DD 66 F8      [19] 6096 	ld	h,-8 (ix)
   249F DD 6E FE      [19] 6097 	ld	l,-2 (ix)
   24A2 E5            [11] 6098 	push	hl
   24A3 CDr00r00      [17] 6099 	call	__moduchar
   24A6 F1            [10] 6100 	pop	af
   24A7 DD 75 F6      [19] 6101 	ld	-10 (ix),l
                           6102 ;puzzmem.c:999: grille_y=curseurBas/niveauNb;
   24AA DD 66 F8      [19] 6103 	ld	h,-8 (ix)
   24AD DD 6E FE      [19] 6104 	ld	l,-2 (ix)
   24B0 E5            [11] 6105 	push	hl
   24B1 CDr00r00      [17] 6106 	call	__divuchar
   24B4 F1            [10] 6107 	pop	af
   24B5 DD 75 F5      [19] 6108 	ld	-11 (ix),l
                           6109 ;puzzmem.c:1000: if (private_grille[grille_x][grille_y] != CASE_VIDE) {
   24B8 DD 4E F6      [19] 6110 	ld	c,-10 (ix)
   24BB 06 00         [ 7] 6111 	ld	b,#0x00
   24BD 69            [ 4] 6112 	ld	l, c
   24BE 60            [ 4] 6113 	ld	h, b
   24BF 29            [11] 6114 	add	hl, hl
   24C0 09            [11] 6115 	add	hl, bc
   24C1 29            [11] 6116 	add	hl, hl
   24C2 09            [11] 6117 	add	hl, bc
   24C3 01r31r00      [10] 6118 	ld	bc,#_private_grille
   24C6 09            [11] 6119 	add	hl,bc
   24C7 4D            [ 4] 6120 	ld	c,l
   24C8 44            [ 4] 6121 	ld	b,h
   24C9 DD 6E F5      [19] 6122 	ld	l,-11 (ix)
   24CC 79            [ 4] 6123 	ld	a,c
   24CD 85            [ 4] 6124 	add	a, l
   24CE 4F            [ 4] 6125 	ld	c,a
   24CF 78            [ 4] 6126 	ld	a,b
   24D0 CE 00         [ 7] 6127 	adc	a, #0x00
   24D2 47            [ 4] 6128 	ld	b,a
   24D3 0A            [ 7] 6129 	ld	a,(bc)
   24D4 D6 12         [ 7] 6130 	sub	a, #0x12
   24D6 28 0E         [12] 6131 	jr	Z,00271$
                           6132 ;puzzmem.c:1001: etatSelect=SELECT_ON;
   24D8 DD 36 FD 01   [19] 6133 	ld	-3 (ix),#0x01
                           6134 ;puzzmem.c:1002: curseurBasOld=curseurBas; // cheeting
   24DC DD 7E FE      [19] 6135 	ld	a,-2 (ix)
   24DF DD 77 F9      [19] 6136 	ld	-7 (ix),a
                           6137 ;puzzmem.c:1003: one_key=EN_BAS;
   24E2 DD 36 F2 02   [19] 6138 	ld	-14 (ix),#0x02
                           6139 ;puzzmem.c:1009: }
   24E6                    6140 00271$:
                           6141 ;puzzmem.c:1010: if (one_key!=0) {
   24E6 DD 7E F2      [19] 6142 	ld	a,-14 (ix)
   24E9 B7            [ 4] 6143 	or	a, a
   24EA CAr19r1A      [10] 6144 	jp	Z,00291$
                           6145 ;puzzmem.c:1013: if ((one_key==EN_HAUT) || (one_key==EN_HAUT_ET_EN_BAS)) {
   24ED DD 7E F2      [19] 6146 	ld	a,-14 (ix)
   24F0 3D            [ 4] 6147 	dec	a
   24F1 28 07         [12] 6148 	jr	Z,00274$
   24F3 DD 7E F2      [19] 6149 	ld	a,-14 (ix)
   24F6 D6 03         [ 7] 6150 	sub	a, #0x03
   24F8 20 42         [12] 6151 	jr	NZ,00275$
   24FA                    6152 00274$:
                           6153 ;puzzmem.c:1014: if (curseurHautOld!=curseurHaut) {
   24FA DD 7E FA      [19] 6154 	ld	a,-6 (ix)
   24FD DD 96 FF      [19] 6155 	sub	a, -1 (ix)
   2500 28 1D         [12] 6156 	jr	Z,00273$
                           6157 ;puzzmem.c:1015: fillListe1Piece(nbPieces,curseurHautOld,curseurHaut,etatSelect,etatZone,0);
   2502 AF            [ 4] 6158 	xor	a, a
   2503 F5            [11] 6159 	push	af
   2504 33            [ 6] 6160 	inc	sp
   2505 DD 66 FC      [19] 6161 	ld	h,-4 (ix)
   2508 DD 6E FD      [19] 6162 	ld	l,-3 (ix)
   250B E5            [11] 6163 	push	hl
   250C DD 66 FF      [19] 6164 	ld	h,-1 (ix)
   250F DD 6E FA      [19] 6165 	ld	l,-6 (ix)
   2512 E5            [11] 6166 	push	hl
   2513 2Ar74r00      [16] 6167 	ld	hl,(_nbPieces)
   2516 E5            [11] 6168 	push	hl
   2517 CDrA8r14      [17] 6169 	call	_fillListe1Piece
   251A 21 07 00      [10] 6170 	ld	hl,#7
   251D 39            [11] 6171 	add	hl,sp
   251E F9            [ 6] 6172 	ld	sp,hl
   251F                    6173 00273$:
                           6174 ;puzzmem.c:1017: fillListe1Piece(nbPieces,curseurHaut,curseurHaut,etatSelect,etatZone,0);
   251F AF            [ 4] 6175 	xor	a, a
   2520 F5            [11] 6176 	push	af
   2521 33            [ 6] 6177 	inc	sp
   2522 DD 66 FC      [19] 6178 	ld	h,-4 (ix)
   2525 DD 6E FD      [19] 6179 	ld	l,-3 (ix)
   2528 E5            [11] 6180 	push	hl
   2529 DD 66 FF      [19] 6181 	ld	h,-1 (ix)
   252C DD 6E FF      [19] 6182 	ld	l,-1 (ix)
   252F E5            [11] 6183 	push	hl
   2530 2Ar74r00      [16] 6184 	ld	hl,(_nbPieces)
   2533 E5            [11] 6185 	push	hl
   2534 CDrA8r14      [17] 6186 	call	_fillListe1Piece
   2537 21 07 00      [10] 6187 	ld	hl,#7
   253A 39            [11] 6188 	add	hl,sp
   253B F9            [ 6] 6189 	ld	sp,hl
   253C                    6190 00275$:
                           6191 ;puzzmem.c:1019: if ((one_key==EN_BAS) || (one_key==EN_HAUT_ET_EN_BAS)) {
   253C DD 7E F2      [19] 6192 	ld	a,-14 (ix)
   253F D6 02         [ 7] 6193 	sub	a, #0x02
   2541 28 08         [12] 6194 	jr	Z,00285$
   2543 DD 7E F2      [19] 6195 	ld	a,-14 (ix)
   2546 D6 03         [ 7] 6196 	sub	a, #0x03
   2548 C2r19r1A      [10] 6197 	jp	NZ,00291$
   254B                    6198 00285$:
                           6199 ;puzzmem.c:1020: if (curseurBasOld!=curseurBas) {
   254B DD 7E F9      [19] 6200 	ld	a,-7 (ix)
   254E DD 96 FE      [19] 6201 	sub	a, -2 (ix)
   2551 28 43         [12] 6202 	jr	Z,00281$
                           6203 ;puzzmem.c:1021: if (curseurBasOld==CURSEUR_BAS_SELECT) {
   2553 DD 7E F9      [19] 6204 	ld	a,-7 (ix)
   2556 D6 31         [ 7] 6205 	sub	a, #0x31
   2558 20 1B         [12] 6206 	jr	NZ,00278$
                           6207 ;puzzmem.c:1022: fillSelect(niveauTaille,curseurBas,select,etatSelect,etatZone);
   255A DD 66 FC      [19] 6208 	ld	h,-4 (ix)
   255D DD 6E FD      [19] 6209 	ld	l,-3 (ix)
   2560 E5            [11] 6210 	push	hl
   2561 3Ar7Ar00      [13] 6211 	ld	a,(_select)
   2564 F5            [11] 6212 	push	af
   2565 33            [ 6] 6213 	inc	sp
   2566 DD 66 FE      [19] 6214 	ld	h,-2 (ix)
   2569 DD 6E F7      [19] 6215 	ld	l,-9 (ix)
   256C E5            [11] 6216 	push	hl
   256D CDr30r17      [17] 6217 	call	_fillSelect
   2570 F1            [10] 6218 	pop	af
   2571 F1            [10] 6219 	pop	af
   2572 33            [ 6] 6220 	inc	sp
   2573 18 21         [12] 6221 	jr	00281$
   2575                    6222 00278$:
                           6223 ;puzzmem.c:1024: fill1Grille(grille,niveauTaille,niveauNb,curseurBasOld,curseurBas,etatSelect,etatZone);
   2575 DD 66 FC      [19] 6224 	ld	h,-4 (ix)
   2578 DD 6E FD      [19] 6225 	ld	l,-3 (ix)
   257B E5            [11] 6226 	push	hl
   257C DD 66 FE      [19] 6227 	ld	h,-2 (ix)
   257F DD 6E F9      [19] 6228 	ld	l,-7 (ix)
   2582 E5            [11] 6229 	push	hl
   2583 DD 66 F8      [19] 6230 	ld	h,-8 (ix)
   2586 DD 6E F7      [19] 6231 	ld	l,-9 (ix)
   2589 E5            [11] 6232 	push	hl
   258A 2Ar78r00      [16] 6233 	ld	hl,(_grille)
   258D E5            [11] 6234 	push	hl
   258E CDr71r16      [17] 6235 	call	_fill1Grille
   2591 21 08 00      [10] 6236 	ld	hl,#8
   2594 39            [11] 6237 	add	hl,sp
   2595 F9            [ 6] 6238 	ld	sp,hl
   2596                    6239 00281$:
                           6240 ;puzzmem.c:1027: if (curseurBas==CURSEUR_BAS_SELECT) {
   2596 DD 7E FE      [19] 6241 	ld	a,-2 (ix)
   2599 D6 31         [ 7] 6242 	sub	a, #0x31
   259B 20 1C         [12] 6243 	jr	NZ,00283$
                           6244 ;puzzmem.c:1028: fillSelect(niveauTaille,curseurBas,select,etatSelect,etatZone);
   259D DD 66 FC      [19] 6245 	ld	h,-4 (ix)
   25A0 DD 6E FD      [19] 6246 	ld	l,-3 (ix)
   25A3 E5            [11] 6247 	push	hl
   25A4 3Ar7Ar00      [13] 6248 	ld	a,(_select)
   25A7 F5            [11] 6249 	push	af
   25A8 33            [ 6] 6250 	inc	sp
   25A9 DD 66 FE      [19] 6251 	ld	h,-2 (ix)
   25AC DD 6E F7      [19] 6252 	ld	l,-9 (ix)
   25AF E5            [11] 6253 	push	hl
   25B0 CDr30r17      [17] 6254 	call	_fillSelect
   25B3 F1            [10] 6255 	pop	af
   25B4 F1            [10] 6256 	pop	af
   25B5 33            [ 6] 6257 	inc	sp
   25B6 C3r19r1A      [10] 6258 	jp	00291$
   25B9                    6259 00283$:
                           6260 ;puzzmem.c:1030: fill1Grille(grille,niveauTaille,niveauNb,curseurBas,curseurBas,etatSelect,etatZone);
   25B9 DD 66 FC      [19] 6261 	ld	h,-4 (ix)
   25BC DD 6E FD      [19] 6262 	ld	l,-3 (ix)
   25BF E5            [11] 6263 	push	hl
   25C0 DD 66 FE      [19] 6264 	ld	h,-2 (ix)
   25C3 DD 6E FE      [19] 6265 	ld	l,-2 (ix)
   25C6 E5            [11] 6266 	push	hl
   25C7 DD 66 F8      [19] 6267 	ld	h,-8 (ix)
   25CA DD 6E F7      [19] 6268 	ld	l,-9 (ix)
   25CD E5            [11] 6269 	push	hl
   25CE 2Ar78r00      [16] 6270 	ld	hl,(_grille)
   25D1 E5            [11] 6271 	push	hl
   25D2 CDr71r16      [17] 6272 	call	_fill1Grille
   25D5 21 08 00      [10] 6273 	ld	hl,#8
   25D8 39            [11] 6274 	add	hl,sp
   25D9 F9            [ 6] 6275 	ld	sp,hl
   25DA C3r19r1A      [10] 6276 	jp	00291$
   25DD                    6277 _puzzmem_palette:
   25DD 00                 6278 	.db #0x00	; 0
   25DE 03                 6279 	.db #0x03	; 3
   25DF 1A                 6280 	.db #0x1a	; 26
   25E0 02                 6281 	.db #0x02	; 2
   25E1 00                 6282 	.db #0x00	; 0
   25E2 00                 6283 	.db #0x00	; 0
   25E3 00                 6284 	.db #0x00	; 0
   25E4 00                 6285 	.db #0x00	; 0
   25E5 00                 6286 	.db #0x00	; 0
   25E6 00                 6287 	.db #0x00	; 0
   25E7 00                 6288 	.db #0x00	; 0
   25E8 00                 6289 	.db #0x00	; 0
   25E9 00                 6290 	.db #0x00	; 0
   25EA 00                 6291 	.db #0x00	; 0
   25EB 00                 6292 	.db #0x00	; 0
   25EC 00                 6293 	.db #0x00	; 0
                           6294 	.area _CODE
                           6295 	.area _INITIALIZER
                           6296 	.area _CABS (ABS)
